
MSC_U-Disk.elf:     file format elf32-littleriscv
MSC_U-Disk.elf
architecture: riscv:rv32, flags 0x00000112:
EXEC_P, HAS_SYMS, D_PAGED
start address 0x00000000

Program Header:
    LOAD off    0x00001000 vaddr 0x00000000 paddr 0x00000000 align 2**12
         filesz 0x00002ce4 memsz 0x00002ce4 flags r-x
    LOAD off    0x00004000 vaddr 0x20000000 paddr 0x00002ce4 align 2**12
         filesz 0x000000c8 memsz 0x000003fc flags rw-
    LOAD off    0x00004800 vaddr 0x20004800 paddr 0x20004800 align 2**12
         filesz 0x00000000 memsz 0x00000800 flags rw-

Sections:
Idx Name          Size      VMA       LMA       File off  Algn
  0 .init         00000004  00000000  00000000  00001000  2**1
                  CONTENTS, ALLOC, LOAD, READONLY, CODE
  1 .vector       000000fc  00000004  00000004  00001004  2**1
                  CONTENTS, ALLOC, LOAD, READONLY, CODE
  2 .text         00002be4  00000100  00000100  00001100  2**2
                  CONTENTS, ALLOC, LOAD, READONLY, CODE
  3 .fini         00000000  00002ce4  00002ce4  000040c8  2**0
                  CONTENTS, ALLOC, LOAD, CODE
  4 .dalign       00000000  20000000  20000000  000040c8  2**0
                  CONTENTS
  5 .dlalign      00000000  00002ce4  00002ce4  000040c8  2**0
                  CONTENTS
  6 .data         000000c8  20000000  00002ce4  00004000  2**2
                  CONTENTS, ALLOC, LOAD, DATA
  7 .bss          00000334  200000c8  00002dac  000040c8  2**2
                  ALLOC
  8 .stack        00000800  20004800  20004800  00004800  2**0
                  ALLOC
  9 .debug_info   0000dd03  00000000  00000000  000040c8  2**0
                  CONTENTS, READONLY, DEBUGGING
 10 .debug_abbrev 00002860  00000000  00000000  00011dcb  2**0
                  CONTENTS, READONLY, DEBUGGING
 11 .debug_loc    00002fd5  00000000  00000000  0001462b  2**0
                  CONTENTS, READONLY, DEBUGGING
 12 .debug_aranges 000005b0  00000000  00000000  00017600  2**3
                  CONTENTS, READONLY, DEBUGGING
 13 .debug_ranges 000005a0  00000000  00000000  00017bb0  2**3
                  CONTENTS, READONLY, DEBUGGING
 14 .debug_line   00009d3f  00000000  00000000  00018150  2**0
                  CONTENTS, READONLY, DEBUGGING
 15 .debug_str    0000240b  00000000  00000000  00021e8f  2**0
                  CONTENTS, READONLY, DEBUGGING
 16 .comment      00000033  00000000  00000000  0002429a  2**0
                  CONTENTS, READONLY
 17 .debug_frame  00001654  00000000  00000000  000242d0  2**2
                  CONTENTS, READONLY, DEBUGGING
 18 .stab         00000084  00000000  00000000  00025924  2**2
                  CONTENTS, READONLY, DEBUGGING
 19 .stabstr      00000117  00000000  00000000  000259a8  2**0
                  CONTENTS, READONLY, DEBUGGING
SYMBOL TABLE:
00000000 l    d  .init	00000000 .init
00000004 l    d  .vector	00000000 .vector
00000100 l    d  .text	00000000 .text
00002ce4 l    d  .fini	00000000 .fini
20000000 l    d  .dalign	00000000 .dalign
00002ce4 l    d  .dlalign	00000000 .dlalign
20000000 l    d  .data	00000000 .data
200000c8 l    d  .bss	00000000 .bss
20004800 l    d  .stack	00000000 .stack
00000000 l    d  .debug_info	00000000 .debug_info
00000000 l    d  .debug_abbrev	00000000 .debug_abbrev
00000000 l    d  .debug_loc	00000000 .debug_loc
00000000 l    d  .debug_aranges	00000000 .debug_aranges
00000000 l    d  .debug_ranges	00000000 .debug_ranges
00000000 l    d  .debug_line	00000000 .debug_line
00000000 l    d  .debug_str	00000000 .debug_str
00000000 l    d  .comment	00000000 .comment
00000000 l    d  .debug_frame	00000000 .debug_frame
00000000 l    d  .stab	00000000 .stab
00000000 l    d  .stabstr	00000000 .stabstr
00000000 l    df *ABS*	00000000 ./Startup/startup_ch32x035.o
00000004 l       .vector	00000000 _vector_base
00000000 l    df *ABS*	00000000 Internal_Flash.c
00000000 l    df *ABS*	00000000 SW_UDISK.c
00000000 l    df *ABS*	00000000 ch32x035_it.c
00000000 l    df *ABS*	00000000 ch32x035_usbfs_device.c
00000000 l    df *ABS*	00000000 main.c
00000000 l    df *ABS*	00000000 system_ch32x035.c
00000000 l    df *ABS*	00000000 ch32x035_flash.c
00000000 l    df *ABS*	00000000 ch32x035_gpio.c
00000000 l    df *ABS*	00000000 ch32x035_rcc.c
20000024 l     O .data	00000010 APBAHBPrescTable
00000000 l    df *ABS*	00000000 ch32x035_usart.c
00000000 l    df *ABS*	00000000 debug.c
2000010c l     O .bss	00000002 p_ms
2000010e l     O .bss	00000001 p_us
200000ac l     O .data	00000004 curbrk.4333
00000000 l    df *ABS*	00000000 memcpy.c
00000000 l    df *ABS*	00000000 printf.c
00000000 l    df *ABS*	00000000 puts.c
00000000 l    df *ABS*	00000000 wbuf.c
00000000 l    df *ABS*	00000000 wsetup.c
00000000 l    df *ABS*	00000000 fflush.c
00000000 l    df *ABS*	00000000 findfp.c
00001d1a l     F .text	00000066 std
00000000 l    df *ABS*	00000000 fwalk.c
00000000 l    df *ABS*	00000000 makebuf.c
00000000 l    df *ABS*	00000000 nano-mallocr.c
00000000 l    df *ABS*	00000000 nano-mallocr.c
00000000 l    df *ABS*	00000000 nano-vfprintf.c
000021a0 l     F .text	00000028 __sfputc_r
00000000 l    df *ABS*	00000000 nano-vfprintf_i.c
00000000 l    df *ABS*	00000000 sbrkr.c
00000000 l    df *ABS*	00000000 stdio.c
00000000 l    df *ABS*	00000000 writer.c
00000000 l    df *ABS*	00000000 closer.c
00000000 l    df *ABS*	00000000 fstatr.c
00000000 l    df *ABS*	00000000 isattyr.c
00000000 l    df *ABS*	00000000 lseekr.c
00000000 l    df *ABS*	00000000 memchr.c
00000000 l    df *ABS*	00000000 mlock.c
00000000 l    df *ABS*	00000000 readr.c
00000000 l    df *ABS*	00000000 close.c
00000000 l    df *ABS*	00000000 fstat.c
00000000 l    df *ABS*	00000000 isatty.c
00000000 l    df *ABS*	00000000 lseek.c
00000000 l    df *ABS*	00000000 read.c
00000000 l    df *ABS*	00000000 usb_desc.c
00000000 l    df *ABS*	00000000 impure.c
20000034 l     O .data	00000060 impure_data
00000000 l    df *ABS*	00000000 SPI_FLASH.c
00000000 l    df *ABS*	00000000 reent.c
000006f0 g     F .text	00000080 UDISK_Up_OnePack
0000298e g     F .text	00000028 _isatty_r
00002c30 g     O .text	00000016 MySerNumInfo
20000104 g     O .bss	00000002 USBFS_SetupReqValue
000018f0 g     F .text	000000d4 _puts_r
000029b6 g     F .text	0000002c _lseek_r
00000ab0 g     F .text	00000046 USBFSD_UEP_TLEN_Set
000018b0 g     F .text	00000040 printf
20000898 g       .data	00000000 __global_pointer$
00000108 g     F .text	00000028 .hidden __riscv_save_8
00001236  w      .text	00000000 TIM1_CC_IRQHandler
00001236  w      .text	00000000 TIM2_UP_IRQHandler
000028d8 g     F .text	00000030 __sseek
00001dd0 g     F .text	00000066 __sinit
000019ce g     F .text	000000bc __swbuf_r
000008a2 g     F .text	00000002 HardFault_Handler
00001d8a g     F .text	00000046 __sfmoreglue
200000a0 g     O .data	00000004 CFGHR_tmpA
000029fc g     F .text	00000002 __malloc_unlock
00001236  w      .text	00000000 USBPD_IRQHandler
200000dc g     O .bss	00000004 Udisk_CBW_Tag_Save
00000154 g     F .text	0000000c .hidden __riscv_restore_3
00001236  w      .text	00000000 SysTick_Handler
00001236  w      .text	00000000 PVD_IRQHandler
00000770 g     F .text	0000002c UDISK_In_EP_Deal
00000140 g     F .text	00000020 .hidden __riscv_restore_10
0000089e g     F .text	00000004 NMI_Handler
00000108 g     F .text	00000028 .hidden __riscv_save_11
000008a4 g     F .text	00000018 USBFS_RCC_Init
000016ac g     F .text	0000000a USART_GetFlagStatus
00002964 g     F .text	0000002a _fstat_r
200003f8 g     O .bss	00000004 errno
20000378 g     O .bss	00000040 UDisk_Out_Buf
200000c8 g       .bss	00000000 _sbss
00000800 g       *ABS*	00000000 __stack_size
20000100 g     O .bss	00000002 USBFS_SetupReqLen
0000174c g     F .text	00000052 USART_Printf_Init
00001236  w      .text	00000000 EXTI25_16_IRQHandler
200000ec g     O .bss	00000004 pEndp2_Buf
00002a98 g     O .text	0000000c UDISK_Rd_Format_Capacity
00000c14 g     F .text	00000574 USBFS_IRQHandler
00000154 g     F .text	0000000c .hidden __riscv_restore_2
00002bf4 g     O .text	00000012 MyDevDescr
000017fe g     F .text	000000b2 memcpy
00001d80 g     F .text	0000000a _cleanup_r
20000338 g     O .bss	00000040 UDisk_In_Buf
000019c4 g     F .text	0000000a puts
2000009c g     O .data	00000004 SystemCoreClock
200000cc g     O .bss	00000002 Flash_Sector_Size
00002a36 g     F .text	0000000c _fstat
00000004 g       .init	00000000 _einit
000012be g     F .text	0000001e FLASH_Unlock_Fast
000015e2 g     F .text	0000001e RCC_APB2PeriphClockCmd
00000100 g     F .text	00000030 .hidden __riscv_save_12
00001418 g     F .text	0000016e GPIO_Init
00001236  w      .text	00000000 Break_Point_Handler
00001236  w      .text	00000000 TIM2_TRG_COM_IRQHandler
00000140 g     F .text	00000020 .hidden __riscv_restore_11
00001236  w      .text	00000000 TIM2_CC_IRQHandler
00001236  w      .text	00000000 SPI1_IRQHandler
0000168e g     F .text	00000016 USART_Cmd
0000283a g     F .text	0000002a _sbrk_r
200000eb g     O .bss	00000001 Udisk_Transfer_Status
00000130 g     F .text	0000000c .hidden __riscv_save_1
200000d4 g     O .bss	00000002 UDISK_Sec_Pack_Count
200000bc g     O .data	00000004 MyLangDescr
0000031a g     F .text	0000034a UDISK_SCSI_CMD_Deal
00000154 g     F .text	0000000c .hidden __riscv_restore_0
00001236  w      .text	00000000 AWU_IRQHandler
00001236  w      .text	00000000 EXTI7_0_IRQHandler
000029fe g     F .text	0000002c _read_r
00000116 g     F .text	0000001a .hidden __riscv_save_7
200000c8 g     O .bss	00000004 Flash_Sector_Count
00001236  w      .text	00000000 Ecall_M_Mode_Handler
00002bd4 g     O .text	00000020 MyCfgDescr
20004800 g       .stack	00000000 _heap_end
00002a42 g     F .text	0000000c _isatty
000016e0 g     F .text	00000036 Delay_Us
200000c0 g     O .data	00000004 _global_impure_ptr
00002a8c g     O .text	0000000c UDISK_Mode_Sense_1A
0000014a g     F .text	00000016 .hidden __riscv_restore_5
000015c4 g     F .text	0000001e RCC_AHBPeriphClockCmd
00001236  w      .text	00000000 DMA1_Channel4_IRQHandler
00001236  w      .text	00000000 ADC1_IRQHandler
000017d8 g     F .text	00000026 _sbrk
00001236  w      .text	00000000 TIM2_BRK_IRQHandler
00000208 g     F .text	00000078 IFlash_Prog_512
00002c08 g     O .text	0000000e MyManuInfo
0000014a g     F .text	00000016 .hidden __riscv_restore_6
00001236  w      .text	00000000 USART3_IRQHandler
200000f1 g     O .bss	00000001 USBFS_DevConfig
200003fc g       .bss	00000000 _ebss
00001236  w      .text	00000000 DMA1_Channel7_IRQHandler
00000664 g     F .text	0000004a UDISK_Bulk_UpData
00000280 g     F .text	00000046 UDISK_CMD_Deal_Fail
000016b6 g     F .text	0000002a Delay_Init
20000098 g     O .data	00000002 UDISK_Pack_Size
00001236  w      .text	00000000 USBPDWakeUp_IRQHandler
00001236  w      .text	00000000 EXTI15_8_IRQHandler
200000fe g     O .bss	00000002 USBFS_SetupReqIndex
00000108 g     F .text	00000028 .hidden __riscv_save_9
00000af6 g     F .text	00000046 USBFSD_UEP_CTRL_Set
20000102 g     O .bss	00000001 USBFS_SetupReqType
00002c48 g     O .text	00000020 __sf_fake_stderr
00000116 g     F .text	0000001a .hidden __riscv_save_4
00001236  w      .text	00000000 I2C1_EV_IRQHandler
00001236  w      .text	00000000 USART4_IRQHandler
000002c6 g     F .text	00000054 CMD_RD_WR_Deal_Pre
000006ae g     F .text	00000042 UDISK_Up_CSW
200000f4 g     O .bss	00000008 USBFS_Endp_Busy
00001586 g     F .text	0000003e RCC_GetClocksFreq
00001236  w      .text	00000000 DMA1_Channel6_IRQHandler
000021c8 g     F .text	00000040 __sfputs_r
200000e9 g     O .bss	00000001 Udisk_Sense_Key
000029e2 g     F .text	00000018 memchr
00001600 g     F .text	0000008e USART_Init
20000118 g     O .bss	00000200 UDisk_Down_Buffer
00002024 g     F .text	000000a8 _free_r
00001236  w      .text	00000000 TIM3_IRQHandler
00000130 g     F .text	0000000c .hidden __riscv_save_3
00001236  w      .text	00000000 TIM1_TRG_COM_IRQHandler
200000a8 g     O .data	00000004 CFGHR_tmpC
00001236  w      .text	00000000 DMA1_Channel1_IRQHandler
00000000 g       .init	00000000 _start
00002a4e g     F .text	0000000c _lseek
00000b86 g     F .text	0000008e USBFS_Endp_DataUp
200000e0 g     O .bss	00000001 Udisk_CSW_Status
200000ea g     O .bss	00000001 Udisk_Status
200000fc g     O .bss	00000001 USBFS_SetupReqCode
200000d0 g     O .bss	00000004 UDISK_Cur_Sec_Lba
00001236  w      .text	00000000 DMA1_Channel8_IRQHandler
200000b4 g     O .data	00000008 UDISK_Rd_Capacity
200000f2 g     O .bss	00000001 USBFS_DevEnumStatus
000012ea g     F .text	00000036 FLASH_ErasePage_Fast
0000293c g     F .text	00000028 _close_r
20000000 g       .dalign	00000000 _data_vma
00000a56 g     F .text	0000005a USBFSD_UEP_DMA_Set
00001a8a g     F .text	000000fc __swsetup_r
00001236  w      .text	00000000 PIOC_IRQHandler
00001e36 g     F .text	0000009c __sfp
00000b3c g     F .text	0000004a USBFSD_UEP_CTRL_Get
200000f0 g     O .bss	00000001 USBFS_DevAddr
00000108 g     F .text	00000028 .hidden __riscv_save_10
00002864 g     F .text	0000002c __sread
000029fa g     F .text	00000002 __malloc_lock
00000836 g     F .text	00000068 UDISK_Out_EP_Deal
0000014a g     F .text	00000016 .hidden __riscv_restore_4
00000140 g     F .text	00000020 .hidden __riscv_restore_8
00001cb6 g     F .text	00000064 _fflush_r
00000116 g     F .text	0000001a .hidden __riscv_save_6
00002c68 g     O .text	00000020 __sf_fake_stdin
0000079c g     F .text	0000009a UDISK_Down_OnePack
00000160 g     F .text	000000a8 memset
00000140 g     F .text	00000020 .hidden __riscv_restore_9
0000014a g     F .text	00000016 .hidden __riscv_restore_7
00001188 g     F .text	0000006c main
20000000 g     O .data	00000024 UDISK_Inquity_Tab
00002908 g     F .text	00000006 __sclose
000020cc g     F .text	000000d4 _malloc_r
200000f3 g     O .bss	00000001 USBFS_DevSleepStatus
000009d2 g     F .text	0000003c USBFSD_UEP_BUF
00001236  w      .text	00000000 DMA1_Channel5_IRQHandler
00001716 g     F .text	00000036 Delay_Ms
00000956 g     F .text	0000007c USBFS_Device_Init
00002c18 g     O .text	00000016 MyProdInfo
200000d8 g     O .bss	00000004 UDISK_Transfer_DataLen
200000a4 g     O .data	00000004 CFGHR_tmpB
000008bc g     F .text	00000058 USBFS_Device_Endp_Init
000011f4 g     F .text	00000042 SystemInit
000018b0 g     F .text	00000040 iprintf
00000000 g       .init	00000000 _sinit
0000290e g     F .text	0000002e _write_r
00001236  w      .text	00000000 DMA1_Channel3_IRQHandler
200000e8 g     O .bss	00000001 Udisk_Sense_ASC
0000248e g     F .text	0000010c _printf_common
200000b0 g     O .data	00000004 _impure_ptr
00001236  w      .text	00000000 TIM1_UP_IRQHandler
00001b86 g     F .text	00000130 __sflush_r
00001236  w      .text	00000000 WWDG_IRQHandler
00001236  w      .text	00000000 Ecall_U_Mode_Handler
20005000 g       .stack	00000000 _eusrstack
00000130 g     F .text	0000000c .hidden __riscv_save_2
00001236  w      .text	00000000 SW_Handler
000012dc g     F .text	0000000e FLASH_Lock_Fast
00001236  w      .text	00000000 TIM1_BRK_IRQHandler
00001f3c g     F .text	00000058 __swhatbuf_r
000016a4 g     F .text	00000008 USART_SendData
00001236  w      .text	00000000 OPA_IRQHandler
200000e4 g     O .bss	00000004 Udisk_Capability
00000116 g     F .text	0000001a .hidden __riscv_save_5
0000179e g     F .text	0000003a _write
200003b8 g     O .bss	00000040 USBFS_EP0_4Buf
200000c8 g       .data	00000000 _edata
20000108 g     O .bss	00000004 pUSBFS_Descr
200003fc g       .bss	00000000 _end
00002ce4 g       .dlalign	00000000 _data_lma
20000318 g     O .bss	0000001f mBOC
00001236  w      .text	00000000 USART2_IRQHandler
00002890 g     F .text	00000048 __swrite
00002208 g     F .text	00000286 _vfiprintf_r
00001ed2 g     F .text	0000006a _fwalk_reent
00001320 g     F .text	000000f8 FLASH_ROM_WRITE
00001236  w      .text	00000000 DMA1_Channel2_IRQHandler
00002c88 g     O .text	00000020 __sf_fake_stdout
0000013c g     F .text	00000024 .hidden __riscv_restore_12
00002a5a g     F .text	0000000c _read
00001238  w      .text	00000000 handle_reset
00001236  w      .text	00000000 FLASH_IRQHandler
00000130 g     F .text	0000000c .hidden __riscv_save_0
00001236  w      .text	00000000 USBFSWakeUp_IRQHandler
00001236  w      .text	00000000 USART1_IRQHandler
00001f94 g     F .text	00000090 __smakebuf_r
0000259a g     F .text	000002a0 _printf_i
20000114 g     O .bss	00000004 __malloc_sbrk_start
00001236  w      .text	00000000 I2C1_ER_IRQHandler
20000110 g     O .bss	00000004 __malloc_free_list
00000154 g     F .text	0000000c .hidden __riscv_restore_1
00002208 g     F .text	00000286 _vfprintf_r
00000a0e g     F .text	00000048 USBFS_Endpoint_Mode_Get
00000914 g     F .text	00000042 GPIO_USB_INIT
00002a7c g     O .text	00000010 UDISK_Mode_Senese_5A
00002a2a g     F .text	0000000c _close



Disassembly of section .init:

00000000 <_sinit>:
   0:	2380106f          	j	1238 <handle_reset>

Disassembly of section .vector:

00000004 <_vector_base>:
	...
   c:	089e                	slli	a7,a7,0x7
   e:	0000                	unimp
  10:	08a2                	slli	a7,a7,0x8
  12:	0000                	unimp
  14:	0000                	unimp
  16:	0000                	unimp
  18:	1236                	slli	tp,tp,0x2d
	...
  22:	0000                	unimp
  24:	1236                	slli	tp,tp,0x2d
  26:	0000                	unimp
  28:	1236                	slli	tp,tp,0x2d
	...
  32:	0000                	unimp
  34:	1236                	slli	tp,tp,0x2d
  36:	0000                	unimp
  38:	0000                	unimp
  3a:	0000                	unimp
  3c:	1236                	slli	tp,tp,0x2d
  3e:	0000                	unimp
  40:	0000                	unimp
  42:	0000                	unimp
  44:	1236                	slli	tp,tp,0x2d
  46:	0000                	unimp
  48:	1236                	slli	tp,tp,0x2d
  4a:	0000                	unimp
  4c:	1236                	slli	tp,tp,0x2d
  4e:	0000                	unimp
  50:	0000                	unimp
  52:	0000                	unimp
  54:	1236                	slli	tp,tp,0x2d
  56:	0000                	unimp
  58:	1236                	slli	tp,tp,0x2d
  5a:	0000                	unimp
  5c:	1236                	slli	tp,tp,0x2d
  5e:	0000                	unimp
  60:	1236                	slli	tp,tp,0x2d
  62:	0000                	unimp
  64:	1236                	slli	tp,tp,0x2d
  66:	0000                	unimp
  68:	1236                	slli	tp,tp,0x2d
  6a:	0000                	unimp
  6c:	1236                	slli	tp,tp,0x2d
  6e:	0000                	unimp
  70:	1236                	slli	tp,tp,0x2d
  72:	0000                	unimp
  74:	1236                	slli	tp,tp,0x2d
  76:	0000                	unimp
  78:	1236                	slli	tp,tp,0x2d
  7a:	0000                	unimp
  7c:	1236                	slli	tp,tp,0x2d
  7e:	0000                	unimp
  80:	1236                	slli	tp,tp,0x2d
  82:	0000                	unimp
  84:	1236                	slli	tp,tp,0x2d
  86:	0000                	unimp
  88:	1236                	slli	tp,tp,0x2d
  8a:	0000                	unimp
  8c:	1236                	slli	tp,tp,0x2d
  8e:	0000                	unimp
  90:	1236                	slli	tp,tp,0x2d
  92:	0000                	unimp
  94:	1236                	slli	tp,tp,0x2d
  96:	0000                	unimp
  98:	1236                	slli	tp,tp,0x2d
  9a:	0000                	unimp
  9c:	1236                	slli	tp,tp,0x2d
  9e:	0000                	unimp
  a0:	1236                	slli	tp,tp,0x2d
  a2:	0000                	unimp
  a4:	1236                	slli	tp,tp,0x2d
  a6:	0000                	unimp
  a8:	1236                	slli	tp,tp,0x2d
  aa:	0000                	unimp
  ac:	1236                	slli	tp,tp,0x2d
  ae:	0000                	unimp
  b0:	1236                	slli	tp,tp,0x2d
  b2:	0000                	unimp
  b4:	1236                	slli	tp,tp,0x2d
  b6:	0000                	unimp
  b8:	0c14                	addi	a3,sp,528
  ba:	0000                	unimp
  bc:	1236                	slli	tp,tp,0x2d
  be:	0000                	unimp
  c0:	1236                	slli	tp,tp,0x2d
  c2:	0000                	unimp
  c4:	1236                	slli	tp,tp,0x2d
  c6:	0000                	unimp
  c8:	1236                	slli	tp,tp,0x2d
  ca:	0000                	unimp
  cc:	1236                	slli	tp,tp,0x2d
  ce:	0000                	unimp
  d0:	1236                	slli	tp,tp,0x2d
  d2:	0000                	unimp
  d4:	1236                	slli	tp,tp,0x2d
  d6:	0000                	unimp
  d8:	1236                	slli	tp,tp,0x2d
  da:	0000                	unimp
  dc:	1236                	slli	tp,tp,0x2d
	...

Disassembly of section .text:

00000100 <__riscv_save_12>:
     100:	7139                	addi	sp,sp,-64
     102:	4301                	li	t1,0
     104:	c66e                	sw	s11,12(sp)
     106:	a019                	j	10c <__riscv_save_10+0x4>

00000108 <__riscv_save_10>:
     108:	7139                	addi	sp,sp,-64
     10a:	5341                	li	t1,-16
     10c:	c86a                	sw	s10,16(sp)
     10e:	ca66                	sw	s9,20(sp)
     110:	cc62                	sw	s8,24(sp)
     112:	ce5e                	sw	s7,28(sp)
     114:	a019                	j	11a <__riscv_save_4+0x4>

00000116 <__riscv_save_4>:
     116:	7139                	addi	sp,sp,-64
     118:	5301                	li	t1,-32
     11a:	d05a                	sw	s6,32(sp)
     11c:	d256                	sw	s5,36(sp)
     11e:	d452                	sw	s4,40(sp)
     120:	d64e                	sw	s3,44(sp)
     122:	d84a                	sw	s2,48(sp)
     124:	da26                	sw	s1,52(sp)
     126:	dc22                	sw	s0,56(sp)
     128:	de06                	sw	ra,60(sp)
     12a:	40610133          	sub	sp,sp,t1
     12e:	8282                	jr	t0

00000130 <__riscv_save_0>:
     130:	1141                	addi	sp,sp,-16
     132:	c04a                	sw	s2,0(sp)
     134:	c226                	sw	s1,4(sp)
     136:	c422                	sw	s0,8(sp)
     138:	c606                	sw	ra,12(sp)
     13a:	8282                	jr	t0

0000013c <__riscv_restore_12>:
     13c:	4db2                	lw	s11,12(sp)
     13e:	0141                	addi	sp,sp,16

00000140 <__riscv_restore_10>:
     140:	4d02                	lw	s10,0(sp)
     142:	4c92                	lw	s9,4(sp)
     144:	4c22                	lw	s8,8(sp)
     146:	4bb2                	lw	s7,12(sp)
     148:	0141                	addi	sp,sp,16

0000014a <__riscv_restore_4>:
     14a:	4b02                	lw	s6,0(sp)
     14c:	4a92                	lw	s5,4(sp)
     14e:	4a22                	lw	s4,8(sp)
     150:	49b2                	lw	s3,12(sp)
     152:	0141                	addi	sp,sp,16

00000154 <__riscv_restore_0>:
     154:	4902                	lw	s2,0(sp)
     156:	4492                	lw	s1,4(sp)
     158:	4422                	lw	s0,8(sp)
     15a:	40b2                	lw	ra,12(sp)
     15c:	0141                	addi	sp,sp,16
     15e:	8082                	ret

00000160 <memset>:
     160:	433d                	li	t1,15
     162:	872a                	mv	a4,a0
     164:	02c37363          	bgeu	t1,a2,18a <memset+0x2a>
     168:	00f77793          	andi	a5,a4,15
     16c:	efbd                	bnez	a5,1ea <memset+0x8a>
     16e:	e5ad                	bnez	a1,1d8 <memset+0x78>
     170:	ff067693          	andi	a3,a2,-16
     174:	8a3d                	andi	a2,a2,15
     176:	96ba                	add	a3,a3,a4
     178:	c30c                	sw	a1,0(a4)
     17a:	c34c                	sw	a1,4(a4)
     17c:	c70c                	sw	a1,8(a4)
     17e:	c74c                	sw	a1,12(a4)
     180:	0741                	addi	a4,a4,16
     182:	fed76be3          	bltu	a4,a3,178 <memset+0x18>
     186:	e211                	bnez	a2,18a <memset+0x2a>
     188:	8082                	ret
     18a:	40c306b3          	sub	a3,t1,a2
     18e:	068a                	slli	a3,a3,0x2
     190:	00000297          	auipc	t0,0x0
     194:	9696                	add	a3,a3,t0
     196:	00a68067          	jr	10(a3)
     19a:	00b70723          	sb	a1,14(a4)
     19e:	00b706a3          	sb	a1,13(a4)
     1a2:	00b70623          	sb	a1,12(a4)
     1a6:	00b705a3          	sb	a1,11(a4)
     1aa:	00b70523          	sb	a1,10(a4)
     1ae:	00b704a3          	sb	a1,9(a4)
     1b2:	00b70423          	sb	a1,8(a4)
     1b6:	00b703a3          	sb	a1,7(a4)
     1ba:	00b70323          	sb	a1,6(a4)
     1be:	00b702a3          	sb	a1,5(a4)
     1c2:	00b70223          	sb	a1,4(a4)
     1c6:	00b701a3          	sb	a1,3(a4)
     1ca:	00b70123          	sb	a1,2(a4)
     1ce:	00b700a3          	sb	a1,1(a4)
     1d2:	00b70023          	sb	a1,0(a4)
     1d6:	8082                	ret
     1d8:	0ff5f593          	andi	a1,a1,255
     1dc:	00859693          	slli	a3,a1,0x8
     1e0:	8dd5                	or	a1,a1,a3
     1e2:	01059693          	slli	a3,a1,0x10
     1e6:	8dd5                	or	a1,a1,a3
     1e8:	b761                	j	170 <memset+0x10>
     1ea:	00279693          	slli	a3,a5,0x2
     1ee:	00000297          	auipc	t0,0x0
     1f2:	9696                	add	a3,a3,t0
     1f4:	8286                	mv	t0,ra
     1f6:	fa8680e7          	jalr	-88(a3)
     1fa:	8096                	mv	ra,t0
     1fc:	17c1                	addi	a5,a5,-16
     1fe:	8f1d                	sub	a4,a4,a5
     200:	963e                	add	a2,a2,a5
     202:	f8c374e3          	bgeu	t1,a2,18a <memset+0x2a>
     206:	b7a5                	j	16e <memset+0xe>

00000208 <IFlash_Prog_512>:
     208:	f29ff2ef          	jal	t0,130 <__riscv_save_0>
     20c:	080057b7          	lui	a5,0x8005
     210:	00f56a63          	bltu	a0,a5,224 <IFlash_Prog_512+0x1c>
     214:	0800f7b7          	lui	a5,0x800f
     218:	1ff50713          	addi	a4,a0,511
     21c:	7ff78793          	addi	a5,a5,2047 # 800f7ff <_data_lma+0x800cb1b>
     220:	00e7fa63          	bgeu	a5,a4,234 <IFlash_Prog_512+0x2c>
     224:	85aa                	mv	a1,a0
     226:	00003537          	lui	a0,0x3
     22a:	a6850513          	addi	a0,a0,-1432 # 2a68 <_read+0xe>
     22e:	682010ef          	jal	ra,18b0 <iprintf>
     232:	b70d                	j	154 <__riscv_restore_0>
     234:	0522                	slli	a0,a0,0x8
     236:	8121                	srli	a0,a0,0x8
     238:	08000437          	lui	s0,0x8000
     23c:	892e                	mv	s2,a1
     23e:	8c49                	or	s0,s0,a0
     240:	08800493          	li	s1,136
     244:	8004b073          	csrc	0x800,s1
     248:	076010ef          	jal	ra,12be <FLASH_Unlock_Fast>
     24c:	8522                	mv	a0,s0
     24e:	09c010ef          	jal	ra,12ea <FLASH_ErasePage_Fast>
     252:	85ca                	mv	a1,s2
     254:	10000613          	li	a2,256
     258:	8522                	mv	a0,s0
     25a:	0c6010ef          	jal	ra,1320 <FLASH_ROM_WRITE>
     25e:	10040413          	addi	s0,s0,256 # 8000100 <_data_lma+0x7ffd41c>
     262:	8522                	mv	a0,s0
     264:	086010ef          	jal	ra,12ea <FLASH_ErasePage_Fast>
     268:	10000613          	li	a2,256
     26c:	10090593          	addi	a1,s2,256
     270:	8522                	mv	a0,s0
     272:	0ae010ef          	jal	ra,1320 <FLASH_ROM_WRITE>
     276:	066010ef          	jal	ra,12dc <FLASH_Lock_Fast>
     27a:	8004a073          	csrs	0x800,s1
     27e:	bf55                	j	232 <IFlash_Prog_512+0x2a>

00000280 <UDISK_CMD_Deal_Fail>:
     280:	85318713          	addi	a4,gp,-1965 # 200000eb <Udisk_Transfer_Status>
     284:	2318                	lbu	a4,0(a4)
     286:	85318793          	addi	a5,gp,-1965 # 200000eb <Udisk_Transfer_Status>
     28a:	8b05                	andi	a4,a4,1
     28c:	cf09                	beqz	a4,2a6 <UDISK_CMD_Deal_Fail+0x26>
     28e:	40023737          	lui	a4,0x40023
     292:	42a75683          	lhu	a3,1066(a4) # 4002342a <_eusrstack+0x2001e42a>
     296:	0036e693          	ori	a3,a3,3
     29a:	42d71523          	sh	a3,1066(a4)
     29e:	2398                	lbu	a4,0(a5)
     2a0:	0fe77713          	andi	a4,a4,254
     2a4:	a398                	sb	a4,0(a5)
     2a6:	2398                	lbu	a4,0(a5)
     2a8:	8b09                	andi	a4,a4,2
     2aa:	cf09                	beqz	a4,2c4 <UDISK_CMD_Deal_Fail+0x44>
     2ac:	40023737          	lui	a4,0x40023
     2b0:	42e75683          	lhu	a3,1070(a4) # 4002342e <_eusrstack+0x2001e42e>
     2b4:	0036e693          	ori	a3,a3,3
     2b8:	42d71723          	sh	a3,1070(a4)
     2bc:	2398                	lbu	a4,0(a5)
     2be:	0fd77713          	andi	a4,a4,253
     2c2:	a398                	sb	a4,0(a5)
     2c4:	8082                	ret

000002c6 <CMD_RD_WR_Deal_Pre>:
     2c6:	a8018713          	addi	a4,gp,-1408 # 20000318 <mBOC>
     2ca:	3b14                	lbu	a3,17(a4)
     2cc:	83818793          	addi	a5,gp,-1992 # 200000d0 <UDISK_Cur_Sec_Lba>
     2d0:	06e2                	slli	a3,a3,0x18
     2d2:	c394                	sw	a3,0(a5)
     2d4:	2b34                	lbu	a3,18(a4)
     2d6:	4390                	lw	a2,0(a5)
     2d8:	06c2                	slli	a3,a3,0x10
     2da:	96b2                	add	a3,a3,a2
     2dc:	c394                	sw	a3,0(a5)
     2de:	3b34                	lbu	a3,19(a4)
     2e0:	4390                	lw	a2,0(a5)
     2e2:	06a2                	slli	a3,a3,0x8
     2e4:	96b2                	add	a3,a3,a2
     2e6:	c394                	sw	a3,0(a5)
     2e8:	4390                	lw	a2,0(a5)
     2ea:	2b54                	lbu	a3,20(a4)
     2ec:	96b2                	add	a3,a3,a2
     2ee:	c394                	sw	a3,0(a5)
     2f0:	2b74                	lbu	a3,22(a4)
     2f2:	84018793          	addi	a5,gp,-1984 # 200000d8 <UDISK_Transfer_DataLen>
     2f6:	06a2                	slli	a3,a3,0x8
     2f8:	c394                	sw	a3,0(a5)
     2fa:	4394                	lw	a3,0(a5)
     2fc:	3b78                	lbu	a4,23(a4)
     2fe:	9736                	add	a4,a4,a3
     300:	c398                	sw	a4,0(a5)
     302:	4398                	lw	a4,0(a5)
     304:	0726                	slli	a4,a4,0x9
     306:	c398                	sw	a4,0(a5)
     308:	82019e23          	sh	zero,-1988(gp) # 200000d4 <UDISK_Sec_Pack_Count>
     30c:	840188a3          	sb	zero,-1967(gp) # 200000e9 <Udisk_Sense_Key>
     310:	84018823          	sb	zero,-1968(gp) # 200000e8 <Udisk_Sense_ASC>
     314:	84018423          	sb	zero,-1976(gp) # 200000e0 <Udisk_CSW_Status>
     318:	8082                	ret

0000031a <UDISK_SCSI_CMD_Deal>:
     31a:	e17ff2ef          	jal	t0,130 <__riscv_save_0>
     31e:	a801c603          	lbu	a2,-1408(gp) # 20000318 <mBOC>
     322:	05500713          	li	a4,85
     326:	85318693          	addi	a3,gp,-1965 # 200000eb <Udisk_Transfer_Status>
     32a:	30e61b63          	bne	a2,a4,640 <UDISK_SCSI_CMD_Deal+0x326>
     32e:	a8018793          	addi	a5,gp,-1408 # 20000318 <mBOC>
     332:	3390                	lbu	a2,1(a5)
     334:	05300713          	li	a4,83
     338:	30e61463          	bne	a2,a4,640 <UDISK_SCSI_CMD_Deal+0x326>
     33c:	23b0                	lbu	a2,2(a5)
     33e:	04200713          	li	a4,66
     342:	2ee61f63          	bne	a2,a4,640 <UDISK_SCSI_CMD_Deal+0x326>
     346:	33b0                	lbu	a2,3(a5)
     348:	04300713          	li	a4,67
     34c:	2ee61a63          	bne	a2,a4,640 <UDISK_SCSI_CMD_Deal+0x326>
     350:	23d0                	lbu	a2,4(a5)
     352:	84418713          	addi	a4,gp,-1980 # 200000dc <Udisk_CBW_Tag_Save>
     356:	a310                	sb	a2,0(a4)
     358:	33d0                	lbu	a2,5(a5)
     35a:	37ac                	lbu	a1,11(a5)
     35c:	b310                	sb	a2,1(a4)
     35e:	23f0                	lbu	a2,6(a5)
     360:	05e2                	slli	a1,a1,0x18
     362:	a330                	sb	a2,2(a4)
     364:	33f0                	lbu	a2,7(a5)
     366:	b330                	sb	a2,3(a4)
     368:	84018613          	addi	a2,gp,-1984 # 200000d8 <UDISK_Transfer_DataLen>
     36c:	c20c                	sw	a1,0(a2)
     36e:	27ac                	lbu	a1,10(a5)
     370:	4208                	lw	a0,0(a2)
     372:	84018713          	addi	a4,gp,-1984 # 200000d8 <UDISK_Transfer_DataLen>
     376:	05c2                	slli	a1,a1,0x10
     378:	95aa                	add	a1,a1,a0
     37a:	c20c                	sw	a1,0(a2)
     37c:	378c                	lbu	a1,9(a5)
     37e:	4208                	lw	a0,0(a2)
     380:	05a2                	slli	a1,a1,0x8
     382:	95aa                	add	a1,a1,a0
     384:	c20c                	sw	a1,0(a2)
     386:	4208                	lw	a0,0(a2)
     388:	278c                	lbu	a1,8(a5)
     38a:	95aa                	add	a1,a1,a0
     38c:	c20c                	sw	a1,0(a2)
     38e:	4210                	lw	a2,0(a2)
     390:	ca09                	beqz	a2,3a2 <UDISK_SCSI_CMD_Deal+0x88>
     392:	00c78603          	lb	a2,12(a5)
     396:	04065c63          	bgez	a2,3ee <UDISK_SCSI_CMD_Deal+0xd4>
     39a:	2290                	lbu	a2,0(a3)
     39c:	00166613          	ori	a2,a2,1
     3a0:	a290                	sb	a2,0(a3)
     3a2:	2290                	lbu	a2,0(a3)
     3a4:	02300593          	li	a1,35
     3a8:	00466613          	ori	a2,a2,4
     3ac:	a290                	sb	a2,0(a3)
     3ae:	37f0                	lbu	a2,15(a5)
     3b0:	10b60263          	beq	a2,a1,4b4 <UDISK_SCSI_CMD_Deal+0x19a>
     3b4:	08c5eb63          	bltu	a1,a2,44a <UDISK_SCSI_CMD_Deal+0x130>
     3b8:	45c9                	li	a1,18
     3ba:	0cb60863          	beq	a2,a1,48a <UDISK_SCSI_CMD_Deal+0x170>
     3be:	02c5ec63          	bltu	a1,a2,3f6 <UDISK_SCSI_CMD_Deal+0xdc>
     3c2:	85118513          	addi	a0,gp,-1967 # 200000e9 <Udisk_Sense_Key>
     3c6:	85018593          	addi	a1,gp,-1968 # 200000e8 <Udisk_Sense_ASC>
     3ca:	84818713          	addi	a4,gp,-1976 # 200000e0 <Udisk_CSW_Status>
     3ce:	24060463          	beqz	a2,616 <UDISK_SCSI_CMD_Deal+0x2fc>
     3d2:	480d                	li	a6,3
     3d4:	21060863          	beq	a2,a6,5e4 <UDISK_SCSI_CMD_Deal+0x2ca>
     3d8:	4715                	li	a4,5
     3da:	84e188a3          	sb	a4,-1967(gp) # 200000e9 <Udisk_Sense_Key>
     3de:	02000713          	li	a4,32
     3e2:	84e18823          	sb	a4,-1968(gp) # 200000e8 <Udisk_Sense_ASC>
     3e6:	4705                	li	a4,1
     3e8:	84e18423          	sb	a4,-1976(gp) # 200000e0 <Udisk_CSW_Status>
     3ec:	a4a9                	j	636 <UDISK_SCSI_CMD_Deal+0x31c>
     3ee:	2290                	lbu	a2,0(a3)
     3f0:	00266613          	ori	a2,a2,2
     3f4:	b775                	j	3a0 <UDISK_SCSI_CMD_Deal+0x86>
     3f6:	45ed                	li	a1,27
     3f8:	0ab60763          	beq	a2,a1,4a6 <UDISK_SCSI_CMD_Deal+0x18c>
     3fc:	45f9                	li	a1,30
     3fe:	0ab60463          	beq	a2,a1,4a6 <UDISK_SCSI_CMD_Deal+0x18c>
     402:	45e9                	li	a1,26
     404:	fcb61ae3          	bne	a2,a1,3d8 <UDISK_SCSI_CMD_Deal+0xbe>
     408:	8521c683          	lbu	a3,-1966(gp) # 200000ea <Udisk_Status>
     40c:	8a85                	andi	a3,a3,1
     40e:	16068063          	beqz	a3,56e <UDISK_SCSI_CMD_Deal+0x254>
     412:	4310                	lw	a2,0(a4)
     414:	46b1                	li	a3,12
     416:	00c6f363          	bgeu	a3,a2,41c <UDISK_SCSI_CMD_Deal+0x102>
     41a:	c314                	sw	a3,0(a4)
     41c:	660d                	lui	a2,0x3
     41e:	4681                	li	a3,0
     420:	a8c60613          	addi	a2,a2,-1396 # 2a8c <UDISK_Mode_Sense_1A>
     424:	430c                	lw	a1,0(a4)
     426:	12b6ea63          	bltu	a3,a1,55a <UDISK_SCSI_CMD_Deal+0x240>
     42a:	84c18713          	addi	a4,gp,-1972 # 200000e4 <Udisk_Capability>
     42e:	4314                	lw	a3,0(a4)
     430:	82e1                	srli	a3,a3,0x18
     432:	a3d4                	sb	a3,4(a5)
     434:	4314                	lw	a3,0(a4)
     436:	82c1                	srli	a3,a3,0x10
     438:	b3d4                	sb	a3,5(a5)
     43a:	4314                	lw	a3,0(a4)
     43c:	4318                	lw	a4,0(a4)
     43e:	82a1                	srli	a3,a3,0x8
     440:	a3f4                	sb	a3,6(a5)
     442:	b3f8                	sb	a4,7(a5)
     444:	84f1aa23          	sw	a5,-1964(gp) # 200000ec <pEndp2_Buf>
     448:	a02d                	j	472 <UDISK_SCSI_CMD_Deal+0x158>
     44a:	02a00593          	li	a1,42
     44e:	00b60c63          	beq	a2,a1,466 <UDISK_SCSI_CMD_Deal+0x14c>
     452:	02c5e163          	bltu	a1,a2,474 <UDISK_SCSI_CMD_Deal+0x15a>
     456:	02500593          	li	a1,37
     45a:	0ab60563          	beq	a2,a1,504 <UDISK_SCSI_CMD_Deal+0x1ea>
     45e:	02800793          	li	a5,40
     462:	f6f61be3          	bne	a2,a5,3d8 <UDISK_SCSI_CMD_Deal+0xbe>
     466:	8521c783          	lbu	a5,-1966(gp) # 200000ea <Udisk_Status>
     46a:	8b85                	andi	a5,a5,1
     46c:	10078163          	beqz	a5,56e <UDISK_SCSI_CMD_Deal+0x254>
     470:	3d99                	jal	2c6 <CMD_RD_WR_Deal_Pre>
     472:	b1cd                	j	154 <__riscv_restore_0>
     474:	02f00593          	li	a1,47
     478:	02b60763          	beq	a2,a1,4a6 <UDISK_SCSI_CMD_Deal+0x18c>
     47c:	05a00593          	li	a1,90
     480:	10b60363          	beq	a2,a1,586 <UDISK_SCSI_CMD_Deal+0x26c>
     484:	02e00793          	li	a5,46
     488:	bfe9                	j	462 <UDISK_SCSI_CMD_Deal+0x148>
     48a:	4314                	lw	a3,0(a4)
     48c:	02400793          	li	a5,36
     490:	00d7f363          	bgeu	a5,a3,496 <UDISK_SCSI_CMD_Deal+0x17c>
     494:	c31c                	sw	a5,0(a4)
     496:	200007b7          	lui	a5,0x20000
     49a:	00078793          	mv	a5,a5
     49e:	00078023          	sb	zero,0(a5) # 20000000 <_data_vma>
     4a2:	84f1aa23          	sw	a5,-1964(gp) # 200000ec <pEndp2_Buf>
     4a6:	840188a3          	sb	zero,-1967(gp) # 200000e9 <Udisk_Sense_Key>
     4aa:	84018823          	sb	zero,-1968(gp) # 200000e8 <Udisk_Sense_ASC>
     4ae:	84018423          	sb	zero,-1976(gp) # 200000e0 <Udisk_CSW_Status>
     4b2:	b7c1                	j	472 <UDISK_SCSI_CMD_Deal+0x158>
     4b4:	8521c683          	lbu	a3,-1966(gp) # 200000ea <Udisk_Status>
     4b8:	8a85                	andi	a3,a3,1
     4ba:	cad5                	beqz	a3,56e <UDISK_SCSI_CMD_Deal+0x254>
     4bc:	4310                	lw	a2,0(a4)
     4be:	46b1                	li	a3,12
     4c0:	00c6f363          	bgeu	a3,a2,4c6 <UDISK_SCSI_CMD_Deal+0x1ac>
     4c4:	c314                	sw	a3,0(a4)
     4c6:	660d                	lui	a2,0x3
     4c8:	4681                	li	a3,0
     4ca:	a9860613          	addi	a2,a2,-1384 # 2a98 <UDISK_Rd_Format_Capacity>
     4ce:	430c                	lw	a1,0(a4)
     4d0:	02b6e063          	bltu	a3,a1,4f0 <UDISK_SCSI_CMD_Deal+0x1d6>
     4d4:	84c18713          	addi	a4,gp,-1972 # 200000e4 <Udisk_Capability>
     4d8:	4314                	lw	a3,0(a4)
     4da:	82e1                	srli	a3,a3,0x18
     4dc:	a3d4                	sb	a3,4(a5)
     4de:	4314                	lw	a3,0(a4)
     4e0:	82c1                	srli	a3,a3,0x10
     4e2:	b3d4                	sb	a3,5(a5)
     4e4:	4314                	lw	a3,0(a4)
     4e6:	4318                	lw	a4,0(a4)
     4e8:	82a1                	srli	a3,a3,0x8
     4ea:	a3f4                	sb	a3,6(a5)
     4ec:	b3f8                	sb	a4,7(a5)
     4ee:	bf55                	j	4a2 <UDISK_SCSI_CMD_Deal+0x188>
     4f0:	00d60533          	add	a0,a2,a3
     4f4:	2108                	lbu	a0,0(a0)
     4f6:	00d785b3          	add	a1,a5,a3
     4fa:	0685                	addi	a3,a3,1
     4fc:	a188                	sb	a0,0(a1)
     4fe:	0ff6f693          	andi	a3,a3,255
     502:	b7f1                	j	4ce <UDISK_SCSI_CMD_Deal+0x1b4>
     504:	8521c683          	lbu	a3,-1966(gp) # 200000ea <Udisk_Status>
     508:	8a85                	andi	a3,a3,1
     50a:	c2b5                	beqz	a3,56e <UDISK_SCSI_CMD_Deal+0x254>
     50c:	4310                	lw	a2,0(a4)
     50e:	46a1                	li	a3,8
     510:	00c6f363          	bgeu	a3,a2,516 <UDISK_SCSI_CMD_Deal+0x1fc>
     514:	c314                	sw	a3,0(a4)
     516:	4681                	li	a3,0
     518:	81c18613          	addi	a2,gp,-2020 # 200000b4 <UDISK_Rd_Capacity>
     51c:	430c                	lw	a1,0(a4)
     51e:	02b6e463          	bltu	a3,a1,546 <UDISK_SCSI_CMD_Deal+0x22c>
     522:	84c18713          	addi	a4,gp,-1972 # 200000e4 <Udisk_Capability>
     526:	4314                	lw	a3,0(a4)
     528:	16fd                	addi	a3,a3,-1
     52a:	82e1                	srli	a3,a3,0x18
     52c:	a394                	sb	a3,0(a5)
     52e:	4314                	lw	a3,0(a4)
     530:	16fd                	addi	a3,a3,-1
     532:	82c1                	srli	a3,a3,0x10
     534:	b394                	sb	a3,1(a5)
     536:	4314                	lw	a3,0(a4)
     538:	4318                	lw	a4,0(a4)
     53a:	16fd                	addi	a3,a3,-1
     53c:	82a1                	srli	a3,a3,0x8
     53e:	177d                	addi	a4,a4,-1
     540:	a3b4                	sb	a3,2(a5)
     542:	b3b8                	sb	a4,3(a5)
     544:	bfb9                	j	4a2 <UDISK_SCSI_CMD_Deal+0x188>
     546:	00d60533          	add	a0,a2,a3
     54a:	2108                	lbu	a0,0(a0)
     54c:	00d785b3          	add	a1,a5,a3
     550:	0685                	addi	a3,a3,1
     552:	a188                	sb	a0,0(a1)
     554:	0ff6f693          	andi	a3,a3,255
     558:	b7d1                	j	51c <UDISK_SCSI_CMD_Deal+0x202>
     55a:	00d60533          	add	a0,a2,a3
     55e:	2108                	lbu	a0,0(a0)
     560:	00d785b3          	add	a1,a5,a3
     564:	0685                	addi	a3,a3,1
     566:	a188                	sb	a0,0(a1)
     568:	0ff6f693          	andi	a3,a3,255
     56c:	bd65                	j	424 <UDISK_SCSI_CMD_Deal+0x10a>
     56e:	4709                	li	a4,2
     570:	84e188a3          	sb	a4,-1967(gp) # 200000e9 <Udisk_Sense_Key>
     574:	03a00713          	li	a4,58
     578:	84e18823          	sb	a4,-1968(gp) # 200000e8 <Udisk_Sense_ASC>
     57c:	4705                	li	a4,1
     57e:	84e18423          	sb	a4,-1976(gp) # 200000e0 <Udisk_CSW_Status>
     582:	39fd                	jal	280 <UDISK_CMD_Deal_Fail>
     584:	b5fd                	j	472 <UDISK_SCSI_CMD_Deal+0x158>
     586:	3b90                	lbu	a2,17(a5)
     588:	03f00693          	li	a3,63
     58c:	04d61663          	bne	a2,a3,5d8 <UDISK_SCSI_CMD_Deal+0x2be>
     590:	4310                	lw	a2,0(a4)
     592:	46c1                	li	a3,16
     594:	00c6f363          	bgeu	a3,a2,59a <UDISK_SCSI_CMD_Deal+0x280>
     598:	c314                	sw	a3,0(a4)
     59a:	660d                	lui	a2,0x3
     59c:	4681                	li	a3,0
     59e:	a7c60613          	addi	a2,a2,-1412 # 2a7c <UDISK_Mode_Senese_5A>
     5a2:	430c                	lw	a1,0(a4)
     5a4:	02b6e063          	bltu	a3,a1,5c4 <UDISK_SCSI_CMD_Deal+0x2aa>
     5a8:	84c18713          	addi	a4,gp,-1972 # 200000e4 <Udisk_Capability>
     5ac:	4314                	lw	a3,0(a4)
     5ae:	82e1                	srli	a3,a3,0x18
     5b0:	a794                	sb	a3,8(a5)
     5b2:	4314                	lw	a3,0(a4)
     5b4:	82c1                	srli	a3,a3,0x10
     5b6:	b794                	sb	a3,9(a5)
     5b8:	4314                	lw	a3,0(a4)
     5ba:	4318                	lw	a4,0(a4)
     5bc:	82a1                	srli	a3,a3,0x8
     5be:	a7b4                	sb	a3,10(a5)
     5c0:	b7b8                	sb	a4,11(a5)
     5c2:	b549                	j	444 <UDISK_SCSI_CMD_Deal+0x12a>
     5c4:	00d60533          	add	a0,a2,a3
     5c8:	2108                	lbu	a0,0(a0)
     5ca:	00d785b3          	add	a1,a5,a3
     5ce:	0685                	addi	a3,a3,1
     5d0:	a188                	sb	a0,0(a1)
     5d2:	0ff6f693          	andi	a3,a3,255
     5d6:	b7f1                	j	5a2 <UDISK_SCSI_CMD_Deal+0x288>
     5d8:	4715                	li	a4,5
     5da:	84e188a3          	sb	a4,-1967(gp) # 200000e9 <Udisk_Sense_Key>
     5de:	02000713          	li	a4,32
     5e2:	bf59                	j	578 <UDISK_SCSI_CMD_Deal+0x25e>
     5e4:	07000693          	li	a3,112
     5e8:	a396                	sh	a3,0(a5)
     5ea:	2114                	lbu	a3,0(a0)
     5ec:	000781a3          	sb	zero,3(a5)
     5f0:	0007a423          	sw	zero,8(a5)
     5f4:	a3b4                	sb	a3,2(a5)
     5f6:	0a0006b7          	lui	a3,0xa000
     5fa:	c3d4                	sw	a3,4(a5)
     5fc:	2194                	lbu	a3,0(a1)
     5fe:	000786a3          	sb	zero,13(a5)
     602:	00079723          	sh	zero,14(a5)
     606:	a7d4                	sb	a3,12(a5)
     608:	00079823          	sh	zero,16(a5)
     60c:	84f1aa23          	sw	a5,-1964(gp) # 200000ec <pEndp2_Buf>
     610:	00070023          	sb	zero,0(a4)
     614:	bdb9                	j	472 <UDISK_SCSI_CMD_Deal+0x158>
     616:	8521c783          	lbu	a5,-1966(gp) # 200000ea <Udisk_Status>
     61a:	8b85                	andi	a5,a5,1
     61c:	c791                	beqz	a5,628 <UDISK_SCSI_CMD_Deal+0x30e>
     61e:	00050023          	sb	zero,0(a0)
     622:	00058023          	sb	zero,0(a1)
     626:	b7ed                	j	610 <UDISK_SCSI_CMD_Deal+0x2f6>
     628:	4789                	li	a5,2
     62a:	a11c                	sb	a5,0(a0)
     62c:	03a00793          	li	a5,58
     630:	a19c                	sb	a5,0(a1)
     632:	4785                	li	a5,1
     634:	a31c                	sb	a5,0(a4)
     636:	229c                	lbu	a5,0(a3)
     638:	0017e793          	ori	a5,a5,1
     63c:	a29c                	sb	a5,0(a3)
     63e:	b791                	j	582 <UDISK_SCSI_CMD_Deal+0x268>
     640:	4715                	li	a4,5
     642:	84e188a3          	sb	a4,-1967(gp) # 200000e9 <Udisk_Sense_Key>
     646:	02000713          	li	a4,32
     64a:	84e18823          	sb	a4,-1968(gp) # 200000e8 <Udisk_Sense_ASC>
     64e:	4709                	li	a4,2
     650:	84e18423          	sb	a4,-1976(gp) # 200000e0 <Udisk_CSW_Status>
     654:	229c                	lbu	a5,0(a3)
     656:	0017e793          	ori	a5,a5,1
     65a:	a29c                	sb	a5,0(a3)
     65c:	229c                	lbu	a5,0(a3)
     65e:	0027e793          	ori	a5,a5,2
     662:	bfe9                	j	63c <UDISK_SCSI_CMD_Deal+0x322>

00000664 <UDISK_Bulk_UpData>:
     664:	acdff2ef          	jal	t0,130 <__riscv_save_0>
     668:	20000737          	lui	a4,0x20000
     66c:	09870713          	addi	a4,a4,152 # 20000098 <UDISK_Pack_Size>
     670:	84018793          	addi	a5,gp,-1984 # 200000d8 <UDISK_Transfer_DataLen>
     674:	2316                	lhu	a3,0(a4)
     676:	4390                	lw	a2,0(a5)
     678:	02c6f163          	bgeu	a3,a2,69a <UDISK_Bulk_UpData+0x36>
     67c:	2312                	lhu	a2,0(a4)
     67e:	2316                	lhu	a3,0(a4)
     680:	4398                	lw	a4,0(a5)
     682:	0642                	slli	a2,a2,0x10
     684:	8241                	srli	a2,a2,0x10
     686:	8f15                	sub	a4,a4,a3
     688:	c398                	sw	a4,0(a5)
     68a:	8541a583          	lw	a1,-1964(gp) # 200000ec <pEndp2_Buf>
     68e:	0642                	slli	a2,a2,0x10
     690:	4685                	li	a3,1
     692:	8241                	srli	a2,a2,0x10
     694:	4509                	li	a0,2
     696:	29c5                	jal	b86 <USBFS_Endp_DataUp>
     698:	bc75                	j	154 <__riscv_restore_0>
     69a:	4390                	lw	a2,0(a5)
     69c:	0007a023          	sw	zero,0(a5)
     6a0:	85318793          	addi	a5,gp,-1965 # 200000eb <Udisk_Transfer_Status>
     6a4:	2398                	lbu	a4,0(a5)
     6a6:	0fe77713          	andi	a4,a4,254
     6aa:	a398                	sb	a4,0(a5)
     6ac:	bff9                	j	68a <UDISK_Bulk_UpData+0x26>

000006ae <UDISK_Up_CSW>:
     6ae:	a83ff2ef          	jal	t0,130 <__riscv_save_0>
     6b2:	53425737          	lui	a4,0x53425
     6b6:	840189a3          	sb	zero,-1965(gp) # 200000eb <Udisk_Transfer_Status>
     6ba:	35570713          	addi	a4,a4,853 # 53425355 <_eusrstack+0x33420355>
     6be:	a8018793          	addi	a5,gp,-1408 # 20000318 <mBOC>
     6c2:	c398                	sw	a4,0(a5)
     6c4:	84418713          	addi	a4,gp,-1980 # 200000dc <Udisk_CBW_Tag_Save>
     6c8:	2314                	lbu	a3,0(a4)
     6ca:	0007a423          	sw	zero,8(a5)
     6ce:	4635                	li	a2,13
     6d0:	a3d4                	sb	a3,4(a5)
     6d2:	3314                	lbu	a3,1(a4)
     6d4:	a8018593          	addi	a1,gp,-1408 # 20000318 <mBOC>
     6d8:	4509                	li	a0,2
     6da:	b3d4                	sb	a3,5(a5)
     6dc:	2334                	lbu	a3,2(a4)
     6de:	3338                	lbu	a4,3(a4)
     6e0:	a3f4                	sb	a3,6(a5)
     6e2:	b3f8                	sb	a4,7(a5)
     6e4:	8481c703          	lbu	a4,-1976(gp) # 200000e0 <Udisk_CSW_Status>
     6e8:	4685                	li	a3,1
     6ea:	a7d8                	sb	a4,12(a5)
     6ec:	2969                	jal	b86 <USBFS_Endp_DataUp>
     6ee:	b49d                	j	154 <__riscv_restore_0>

000006f0 <UDISK_Up_OnePack>:
     6f0:	a41ff2ef          	jal	t0,130 <__riscv_save_0>
     6f4:	200004b7          	lui	s1,0x20000
     6f8:	09848493          	addi	s1,s1,152 # 20000098 <UDISK_Pack_Size>
     6fc:	83c18413          	addi	s0,gp,-1988 # 200000d4 <UDISK_Sec_Pack_Count>
     700:	83818913          	addi	s2,gp,-1992 # 200000d0 <UDISK_Cur_Sec_Lba>
     704:	00092783          	lw	a5,0(s2)
     708:	2096                	lhu	a3,0(s1)
     70a:	200e                	lhu	a1,0(s0)
     70c:	00040737          	lui	a4,0x40
     710:	02870713          	addi	a4,a4,40 # 40028 <_data_lma+0x3d344>
     714:	02d585b3          	mul	a1,a1,a3
     718:	97ba                	add	a5,a5,a4
     71a:	2092                	lhu	a2,0(s1)
     71c:	07a6                	slli	a5,a5,0x9
     71e:	4685                	li	a3,1
     720:	4509                	li	a0,2
     722:	95be                	add	a1,a1,a5
     724:	218d                	jal	b86 <USBFS_Endp_DataUp>
     726:	201e                	lhu	a5,0(s0)
     728:	0785                	addi	a5,a5,1
     72a:	07c2                	slli	a5,a5,0x10
     72c:	83c1                	srli	a5,a5,0x10
     72e:	a01e                	sh	a5,0(s0)
     730:	84018693          	addi	a3,gp,-1984 # 200000d8 <UDISK_Transfer_DataLen>
     734:	2092                	lhu	a2,0(s1)
     736:	4298                	lw	a4,0(a3)
     738:	84018793          	addi	a5,gp,-1984 # 200000d8 <UDISK_Transfer_DataLen>
     73c:	8f11                	sub	a4,a4,a2
     73e:	c298                	sw	a4,0(a3)
     740:	2016                	lhu	a3,0(s0)
     742:	2092                	lhu	a2,0(s1)
     744:	20000713          	li	a4,512
     748:	02c74733          	div	a4,a4,a2
     74c:	00d71963          	bne	a4,a3,75e <UDISK_Up_OnePack+0x6e>
     750:	00041023          	sh	zero,0(s0)
     754:	00092703          	lw	a4,0(s2)
     758:	0705                	addi	a4,a4,1
     75a:	00e92023          	sw	a4,0(s2)
     75e:	439c                	lw	a5,0(a5)
     760:	e799                	bnez	a5,76e <UDISK_Up_OnePack+0x7e>
     762:	85318793          	addi	a5,gp,-1965 # 200000eb <Udisk_Transfer_Status>
     766:	2398                	lbu	a4,0(a5)
     768:	0fe77713          	andi	a4,a4,254
     76c:	a398                	sb	a4,0(a5)
     76e:	b2dd                	j	154 <__riscv_restore_0>

00000770 <UDISK_In_EP_Deal>:
     770:	9c1ff2ef          	jal	t0,130 <__riscv_save_0>
     774:	85318793          	addi	a5,gp,-1965 # 200000eb <Udisk_Transfer_Status>
     778:	2398                	lbu	a4,0(a5)
     77a:	8b05                	andi	a4,a4,1
     77c:	cb19                	beqz	a4,792 <UDISK_In_EP_Deal+0x22>
     77e:	a8f1c703          	lbu	a4,-1393(gp) # 20000327 <mBOC+0xf>
     782:	02800793          	li	a5,40
     786:	00f71463          	bne	a4,a5,78e <UDISK_In_EP_Deal+0x1e>
     78a:	379d                	jal	6f0 <UDISK_Up_OnePack>
     78c:	b2e1                	j	154 <__riscv_restore_0>
     78e:	3dd9                	jal	664 <UDISK_Bulk_UpData>
     790:	bff5                	j	78c <UDISK_In_EP_Deal+0x1c>
     792:	239c                	lbu	a5,0(a5)
     794:	8b91                	andi	a5,a5,4
     796:	dbfd                	beqz	a5,78c <UDISK_In_EP_Deal+0x1c>
     798:	3f19                	jal	6ae <UDISK_Up_CSW>
     79a:	bfcd                	j	78c <UDISK_In_EP_Deal+0x1c>

0000079c <UDISK_Down_OnePack>:
     79c:	97bff2ef          	jal	t0,116 <__riscv_save_4>
     7a0:	83c18793          	addi	a5,gp,-1988 # 200000d4 <UDISK_Sec_Pack_Count>
     7a4:	239e                	lhu	a5,0(a5)
     7a6:	85aa                	mv	a1,a0
     7a8:	83c18413          	addi	s0,gp,-1988 # 200000d4 <UDISK_Sec_Pack_Count>
     7ac:	07c2                	slli	a5,a5,0x10
     7ae:	83c1                	srli	a5,a5,0x10
     7b0:	e399                	bnez	a5,7b6 <UDISK_Down_OnePack+0x1a>
     7b2:	8381a783          	lw	a5,-1992(gp) # 200000d0 <UDISK_Cur_Sec_Lba>
     7b6:	200004b7          	lui	s1,0x20000
     7ba:	09848493          	addi	s1,s1,152 # 20000098 <UDISK_Pack_Size>
     7be:	200a                	lhu	a0,0(s0)
     7c0:	209e                	lhu	a5,0(s1)
     7c2:	2092                	lhu	a2,0(s1)
     7c4:	02a78533          	mul	a0,a5,a0
     7c8:	88018713          	addi	a4,gp,-1920 # 20000118 <UDisk_Down_Buffer>
     7cc:	84018913          	addi	s2,gp,-1984 # 200000d8 <UDISK_Transfer_DataLen>
     7d0:	953a                	add	a0,a0,a4
     7d2:	02c010ef          	jal	ra,17fe <memcpy>
     7d6:	201e                	lhu	a5,0(s0)
     7d8:	0785                	addi	a5,a5,1
     7da:	07c2                	slli	a5,a5,0x10
     7dc:	83c1                	srli	a5,a5,0x10
     7de:	a01e                	sh	a5,0(s0)
     7e0:	209a                	lhu	a4,0(s1)
     7e2:	00092783          	lw	a5,0(s2)
     7e6:	8f99                	sub	a5,a5,a4
     7e8:	00f92023          	sw	a5,0(s2)
     7ec:	201a                	lhu	a4,0(s0)
     7ee:	2096                	lhu	a3,0(s1)
     7f0:	20000793          	li	a5,512
     7f4:	02d7c7b3          	div	a5,a5,a3
     7f8:	02e79d63          	bne	a5,a4,832 <__stack_size+0x32>
     7fc:	83818793          	addi	a5,gp,-1992 # 200000d0 <UDISK_Cur_Sec_Lba>
     800:	439c                	lw	a5,0(a5)
     802:	08005537          	lui	a0,0x8005
     806:	88018593          	addi	a1,gp,-1920 # 20000118 <UDisk_Down_Buffer>
     80a:	07a6                	slli	a5,a5,0x9
     80c:	953e                	add	a0,a0,a5
     80e:	3aed                	jal	208 <IFlash_Prog_512>
     810:	00092783          	lw	a5,0(s2)
     814:	83818493          	addi	s1,gp,-1992 # 200000d0 <UDISK_Cur_Sec_Lba>
     818:	eb81                	bnez	a5,828 <__stack_size+0x28>
     81a:	85318793          	addi	a5,gp,-1965 # 200000eb <Udisk_Transfer_Status>
     81e:	2398                	lbu	a4,0(a5)
     820:	0fd77713          	andi	a4,a4,253
     824:	a398                	sb	a4,0(a5)
     826:	3561                	jal	6ae <UDISK_Up_CSW>
     828:	00041023          	sh	zero,0(s0)
     82c:	409c                	lw	a5,0(s1)
     82e:	0785                	addi	a5,a5,1
     830:	c09c                	sw	a5,0(s1)
     832:	919ff06f          	j	14a <__riscv_restore_4>

00000836 <UDISK_Out_EP_Deal>:
     836:	8fbff2ef          	jal	t0,130 <__riscv_save_0>
     83a:	85318793          	addi	a5,gp,-1965 # 200000eb <Udisk_Transfer_Status>
     83e:	239c                	lbu	a5,0(a5)
     840:	8b89                	andi	a5,a5,2
     842:	c781                	beqz	a5,84a <UDISK_Out_EP_Deal+0x14>
     844:	3fa1                	jal	79c <UDISK_Down_OnePack>
     846:	90fff06f          	j	154 <__riscv_restore_0>
     84a:	47fd                	li	a5,31
     84c:	fef59de3          	bne	a1,a5,846 <UDISK_Out_EP_Deal+0x10>
     850:	882a                	mv	a6,a0
     852:	85318413          	addi	s0,gp,-1965 # 200000eb <Udisk_Transfer_Status>
     856:	4781                	li	a5,0
     858:	a8018493          	addi	s1,gp,-1408 # 20000318 <mBOC>
     85c:	477d                	li	a4,31
     85e:	00f806b3          	add	a3,a6,a5
     862:	2290                	lbu	a2,0(a3)
     864:	00f486b3          	add	a3,s1,a5
     868:	0785                	addi	a5,a5,1
     86a:	a290                	sb	a2,0(a3)
     86c:	fee799e3          	bne	a5,a4,85e <UDISK_Out_EP_Deal+0x28>
     870:	346d                	jal	31a <UDISK_SCSI_CMD_Deal>
     872:	201c                	lbu	a5,0(s0)
     874:	8b89                	andi	a5,a5,2
     876:	fbe1                	bnez	a5,846 <UDISK_Out_EP_Deal+0x10>
     878:	201c                	lbu	a5,0(s0)
     87a:	8b85                	andi	a5,a5,1
     87c:	cb91                	beqz	a5,890 <UDISK_Out_EP_Deal+0x5a>
     87e:	34f8                	lbu	a4,15(s1)
     880:	02800793          	li	a5,40
     884:	00f71463          	bne	a4,a5,88c <UDISK_Out_EP_Deal+0x56>
     888:	35a5                	jal	6f0 <UDISK_Up_OnePack>
     88a:	bf75                	j	846 <UDISK_Out_EP_Deal+0x10>
     88c:	3be1                	jal	664 <UDISK_Bulk_UpData>
     88e:	bf65                	j	846 <UDISK_Out_EP_Deal+0x10>
     890:	8481c783          	lbu	a5,-1976(gp) # 200000e0 <Udisk_CSW_Status>
     894:	0ff7f793          	andi	a5,a5,255
     898:	f7dd                	bnez	a5,846 <UDISK_Out_EP_Deal+0x10>
     89a:	3d11                	jal	6ae <UDISK_Up_CSW>
     89c:	b76d                	j	846 <UDISK_Out_EP_Deal+0x10>

0000089e <NMI_Handler>:
     89e:	30200073          	mret

000008a2 <HardFault_Handler>:
     8a2:	a001                	j	8a2 <HardFault_Handler>

000008a4 <USBFS_RCC_Init>:
     8a4:	88dff2ef          	jal	t0,130 <__riscv_save_0>
     8a8:	4585                	li	a1,1
     8aa:	4505                	li	a0,1
     8ac:	537000ef          	jal	ra,15e2 <RCC_APB2PeriphClockCmd>
     8b0:	4585                	li	a1,1
     8b2:	6505                	lui	a0,0x1
     8b4:	511000ef          	jal	ra,15c4 <RCC_AHBPeriphClockCmd>
     8b8:	89dff06f          	j	154 <__riscv_restore_0>

000008bc <USBFS_Device_Endp_Init>:
     8bc:	400237b7          	lui	a5,0x40023
     8c0:	f8400713          	li	a4,-124
     8c4:	40e786a3          	sb	a4,1037(a5) # 4002340d <_eusrstack+0x2001e40d>
     8c8:	b2018713          	addi	a4,gp,-1248 # 200003b8 <USBFS_EP0_4Buf>
     8cc:	40e7a823          	sw	a4,1040(a5)
     8d0:	aa018713          	addi	a4,gp,-1376 # 20000338 <UDisk_In_Buf>
     8d4:	40e7ac23          	sw	a4,1048(a5)
     8d8:	ae018713          	addi	a4,gp,-1312 # 20000378 <UDisk_Out_Buf>
     8dc:	40e7ae23          	sw	a4,1052(a5)
     8e0:	4709                	li	a4,2
     8e2:	42e79123          	sh	a4,1058(a5)
     8e6:	42e79723          	sh	a4,1070(a5)
     8ea:	42079423          	sh	zero,1064(a5)
     8ee:	85c18793          	addi	a5,gp,-1956 # 200000f4 <USBFS_Endp_Busy>
     8f2:	00078023          	sb	zero,0(a5)
     8f6:	000780a3          	sb	zero,1(a5)
     8fa:	00078123          	sb	zero,2(a5)
     8fe:	000781a3          	sb	zero,3(a5)
     902:	00078223          	sb	zero,4(a5)
     906:	000782a3          	sb	zero,5(a5)
     90a:	00078323          	sb	zero,6(a5)
     90e:	000783a3          	sb	zero,7(a5)
     912:	8082                	ret

00000914 <GPIO_USB_INIT>:
     914:	81dff2ef          	jal	t0,130 <__riscv_save_0>
     918:	1141                	addi	sp,sp,-16
     91a:	4585                	li	a1,1
     91c:	4541                	li	a0,16
     91e:	c202                	sw	zero,4(sp)
     920:	c402                	sw	zero,8(sp)
     922:	c602                	sw	zero,12(sp)
     924:	4bf000ef          	jal	ra,15e2 <RCC_APB2PeriphClockCmd>
     928:	67c1                	lui	a5,0x10
     92a:	c23e                	sw	a5,4(sp)
     92c:	004c                	addi	a1,sp,4
     92e:	4791                	li	a5,4
     930:	40011537          	lui	a0,0x40011
     934:	c63e                	sw	a5,12(sp)
     936:	2e3000ef          	jal	ra,1418 <GPIO_Init>
     93a:	000207b7          	lui	a5,0x20
     93e:	c23e                	sw	a5,4(sp)
     940:	004c                	addi	a1,sp,4
     942:	04800793          	li	a5,72
     946:	40011537          	lui	a0,0x40011
     94a:	c63e                	sw	a5,12(sp)
     94c:	2cd000ef          	jal	ra,1418 <GPIO_Init>
     950:	0141                	addi	sp,sp,16
     952:	803ff06f          	j	154 <__riscv_restore_0>

00000956 <USBFS_Device_Init>:
     956:	fdaff2ef          	jal	t0,130 <__riscv_save_0>
     95a:	40010737          	lui	a4,0x40010
     95e:	4f1c                	lw	a5,24(a4)
     960:	f307f793          	andi	a5,a5,-208
     964:	e5a1                	bnez	a1,9ac <USBFS_Device_Init+0x56>
     966:	0887e793          	ori	a5,a5,136
     96a:	cf1c                	sw	a5,24(a4)
     96c:	c139                	beqz	a0,9b2 <USBFS_Device_Init+0x5c>
     96e:	400234b7          	lui	s1,0x40023
     972:	374d                	jal	914 <GPIO_USB_INIT>
     974:	40048023          	sb	zero,1024(s1) # 40023400 <_eusrstack+0x2001e400>
     978:	3791                	jal	8bc <USBFS_Device_Endp_Init>
     97a:	02900793          	li	a5,41
     97e:	400481a3          	sb	zero,1027(s1)
     982:	40f48023          	sb	a5,1024(s1)
     986:	57fd                	li	a5,-1
     988:	40f48323          	sb	a5,1030(s1)
     98c:	f8100793          	li	a5,-127
     990:	40f480a3          	sb	a5,1025(s1)
     994:	479d                	li	a5,7
     996:	40f48123          	sb	a5,1026(s1)
     99a:	6709                	lui	a4,0x2
     99c:	e000e7b7          	lui	a5,0xe000e
     9a0:	40048413          	addi	s0,s1,1024
     9a4:	10e7a223          	sw	a4,260(a5) # e000e104 <_eusrstack+0xc0009104>
     9a8:	facff06f          	j	154 <__riscv_restore_0>
     9ac:	0cc7e793          	ori	a5,a5,204
     9b0:	bf6d                	j	96a <USBFS_Device_Init+0x14>
     9b2:	4799                	li	a5,6
     9b4:	40023437          	lui	s0,0x40023
     9b8:	40f40023          	sb	a5,1024(s0) # 40023400 <_eusrstack+0x2001e400>
     9bc:	4529                	li	a0,10
     9be:	523000ef          	jal	ra,16e0 <Delay_Us>
     9c2:	e000e7b7          	lui	a5,0xe000e
     9c6:	40040023          	sb	zero,1024(s0)
     9ca:	6709                	lui	a4,0x2
     9cc:	18e7a223          	sw	a4,388(a5) # e000e184 <_eusrstack+0xc0009184>
     9d0:	bfe1                	j	9a8 <USBFS_Device_Init+0x52>

000009d2 <USBFSD_UEP_BUF>:
     9d2:	479d                	li	a5,7
     9d4:	02a7eb63          	bltu	a5,a0,a0a <USBFSD_UEP_BUF+0x38>
     9d8:	678d                	lui	a5,0x3
     9da:	aa478793          	addi	a5,a5,-1372 # 2aa4 <UDISK_Rd_Format_Capacity+0xc>
     9de:	050a                	slli	a0,a0,0x2
     9e0:	953e                	add	a0,a0,a5
     9e2:	4118                	lw	a4,0(a0)
     9e4:	400237b7          	lui	a5,0x40023
     9e8:	40078793          	addi	a5,a5,1024 # 40023400 <_eusrstack+0x2001e400>
     9ec:	8702                	jr	a4
     9ee:	4bc8                	lw	a0,20(a5)
     9f0:	8082                	ret
     9f2:	4f88                	lw	a0,24(a5)
     9f4:	8082                	ret
     9f6:	4fc8                	lw	a0,28(a5)
     9f8:	8082                	ret
     9fa:	4b88                	lw	a0,16(a5)
     9fc:	8082                	ret
     9fe:	4be8                	lw	a0,84(a5)
     a00:	8082                	ret
     a02:	4fa8                	lw	a0,88(a5)
     a04:	8082                	ret
     a06:	4fe8                	lw	a0,92(a5)
     a08:	8082                	ret
     a0a:	4501                	li	a0,0
     a0c:	8082                	ret

00000a0e <USBFS_Endpoint_Mode_Get>:
     a0e:	157d                	addi	a0,a0,-1
     a10:	4799                	li	a5,6
     a12:	04a7e063          	bltu	a5,a0,a52 <USBFS_Endpoint_Mode_Get+0x44>
     a16:	678d                	lui	a5,0x3
     a18:	ac478793          	addi	a5,a5,-1340 # 2ac4 <UDISK_Rd_Format_Capacity+0x2c>
     a1c:	050a                	slli	a0,a0,0x2
     a1e:	953e                	add	a0,a0,a5
     a20:	4118                	lw	a4,0(a0)
     a22:	400237b7          	lui	a5,0x40023
     a26:	40078793          	addi	a5,a5,1024 # 40023400 <_eusrstack+0x2001e400>
     a2a:	8702                	jr	a4
     a2c:	27c8                	lbu	a0,12(a5)
     a2e:	8111                	srli	a0,a0,0x4
     a30:	8082                	ret
     a32:	37c8                	lbu	a0,13(a5)
     a34:	893d                	andi	a0,a0,15
     a36:	8082                	ret
     a38:	37c8                	lbu	a0,13(a5)
     a3a:	bfd5                	j	a2e <USBFS_Endpoint_Mode_Get+0x20>
     a3c:	27c8                	lbu	a0,12(a5)
     a3e:	bfdd                	j	a34 <USBFS_Endpoint_Mode_Get+0x26>
     a40:	27e8                	lbu	a0,14(a5)
     a42:	050a                	slli	a0,a0,0x2
     a44:	8931                	andi	a0,a0,12
     a46:	8082                	ret
     a48:	27e8                	lbu	a0,14(a5)
     a4a:	bfed                	j	a44 <USBFS_Endpoint_Mode_Get+0x36>
     a4c:	27e8                	lbu	a0,14(a5)
     a4e:	8109                	srli	a0,a0,0x2
     a50:	bfd5                	j	a44 <USBFS_Endpoint_Mode_Get+0x36>
     a52:	4501                	li	a0,0
     a54:	8082                	ret

00000a56 <USBFSD_UEP_DMA_Set>:
     a56:	479d                	li	a5,7
     a58:	04a7eb63          	bltu	a5,a0,aae <USBFSD_UEP_DMA_Set+0x58>
     a5c:	678d                	lui	a5,0x3
     a5e:	ae078793          	addi	a5,a5,-1312 # 2ae0 <UDISK_Rd_Format_Capacity+0x48>
     a62:	050a                	slli	a0,a0,0x2
     a64:	953e                	add	a0,a0,a5
     a66:	411c                	lw	a5,0(a0)
     a68:	8782                	jr	a5
     a6a:	400237b7          	lui	a5,0x40023
     a6e:	40b7a823          	sw	a1,1040(a5) # 40023410 <_eusrstack+0x2001e410>
     a72:	8082                	ret
     a74:	400237b7          	lui	a5,0x40023
     a78:	40b7aa23          	sw	a1,1044(a5) # 40023414 <_eusrstack+0x2001e414>
     a7c:	8082                	ret
     a7e:	400237b7          	lui	a5,0x40023
     a82:	40b7ac23          	sw	a1,1048(a5) # 40023418 <_eusrstack+0x2001e418>
     a86:	8082                	ret
     a88:	400237b7          	lui	a5,0x40023
     a8c:	40b7ae23          	sw	a1,1052(a5) # 4002341c <_eusrstack+0x2001e41c>
     a90:	8082                	ret
     a92:	400237b7          	lui	a5,0x40023
     a96:	44b7aa23          	sw	a1,1108(a5) # 40023454 <_eusrstack+0x2001e454>
     a9a:	8082                	ret
     a9c:	400237b7          	lui	a5,0x40023
     aa0:	44b7ac23          	sw	a1,1112(a5) # 40023458 <_eusrstack+0x2001e458>
     aa4:	8082                	ret
     aa6:	400237b7          	lui	a5,0x40023
     aaa:	44b7ae23          	sw	a1,1116(a5) # 4002345c <_eusrstack+0x2001e45c>
     aae:	8082                	ret

00000ab0 <USBFSD_UEP_TLEN_Set>:
     ab0:	479d                	li	a5,7
     ab2:	04a7e163          	bltu	a5,a0,af4 <USBFSD_UEP_TLEN_Set+0x44>
     ab6:	678d                	lui	a5,0x3
     ab8:	b0078793          	addi	a5,a5,-1280 # 2b00 <UDISK_Rd_Format_Capacity+0x68>
     abc:	050a                	slli	a0,a0,0x2
     abe:	953e                	add	a0,a0,a5
     ac0:	4118                	lw	a4,0(a0)
     ac2:	05c2                	slli	a1,a1,0x10
     ac4:	400237b7          	lui	a5,0x40023
     ac8:	81c1                	srli	a1,a1,0x10
     aca:	40078793          	addi	a5,a5,1024 # 40023400 <_eusrstack+0x2001e400>
     ace:	8702                	jr	a4
     ad0:	b38e                	sh	a1,32(a5)
     ad2:	8082                	ret
     ad4:	b3ce                	sh	a1,36(a5)
     ad6:	8082                	ret
     ad8:	b78e                	sh	a1,40(a5)
     ada:	8082                	ret
     adc:	b7ce                	sh	a1,44(a5)
     ade:	8082                	ret
     ae0:	bb8e                	sh	a1,48(a5)
     ae2:	8082                	ret
     ae4:	06b79223          	sh	a1,100(a5)
     ae8:	8082                	ret
     aea:	06b79423          	sh	a1,104(a5)
     aee:	8082                	ret
     af0:	06b79623          	sh	a1,108(a5)
     af4:	8082                	ret

00000af6 <USBFSD_UEP_CTRL_Set>:
     af6:	479d                	li	a5,7
     af8:	04a7e163          	bltu	a5,a0,b3a <USBFSD_UEP_CTRL_Set+0x44>
     afc:	678d                	lui	a5,0x3
     afe:	b2078793          	addi	a5,a5,-1248 # 2b20 <UDISK_Rd_Format_Capacity+0x88>
     b02:	050a                	slli	a0,a0,0x2
     b04:	953e                	add	a0,a0,a5
     b06:	4118                	lw	a4,0(a0)
     b08:	05c2                	slli	a1,a1,0x10
     b0a:	400237b7          	lui	a5,0x40023
     b0e:	81c1                	srli	a1,a1,0x10
     b10:	40078793          	addi	a5,a5,1024 # 40023400 <_eusrstack+0x2001e400>
     b14:	8702                	jr	a4
     b16:	b3ae                	sh	a1,34(a5)
     b18:	8082                	ret
     b1a:	b3ee                	sh	a1,38(a5)
     b1c:	8082                	ret
     b1e:	b7ae                	sh	a1,42(a5)
     b20:	8082                	ret
     b22:	b7ee                	sh	a1,46(a5)
     b24:	8082                	ret
     b26:	bbae                	sh	a1,50(a5)
     b28:	8082                	ret
     b2a:	06b79323          	sh	a1,102(a5)
     b2e:	8082                	ret
     b30:	06b79523          	sh	a1,106(a5)
     b34:	8082                	ret
     b36:	06b79723          	sh	a1,110(a5)
     b3a:	8082                	ret

00000b3c <USBFSD_UEP_CTRL_Get>:
     b3c:	479d                	li	a5,7
     b3e:	04a7e263          	bltu	a5,a0,b82 <USBFSD_UEP_CTRL_Get+0x46>
     b42:	678d                	lui	a5,0x3
     b44:	b4078793          	addi	a5,a5,-1216 # 2b40 <UDISK_Rd_Format_Capacity+0xa8>
     b48:	050a                	slli	a0,a0,0x2
     b4a:	953e                	add	a0,a0,a5
     b4c:	4118                	lw	a4,0(a0)
     b4e:	400237b7          	lui	a5,0x40023
     b52:	40078793          	addi	a5,a5,1024 # 40023400 <_eusrstack+0x2001e400>
     b56:	8702                	jr	a4
     b58:	33aa                	lhu	a0,34(a5)
     b5a:	0542                	slli	a0,a0,0x10
     b5c:	8141                	srli	a0,a0,0x10
     b5e:	8082                	ret
     b60:	33ea                	lhu	a0,38(a5)
     b62:	bfe5                	j	b5a <USBFSD_UEP_CTRL_Get+0x1e>
     b64:	37aa                	lhu	a0,42(a5)
     b66:	bfd5                	j	b5a <USBFSD_UEP_CTRL_Get+0x1e>
     b68:	37ea                	lhu	a0,46(a5)
     b6a:	bfc5                	j	b5a <USBFSD_UEP_CTRL_Get+0x1e>
     b6c:	3baa                	lhu	a0,50(a5)
     b6e:	b7f5                	j	b5a <USBFSD_UEP_CTRL_Get+0x1e>
     b70:	0667d503          	lhu	a0,102(a5)
     b74:	b7dd                	j	b5a <USBFSD_UEP_CTRL_Get+0x1e>
     b76:	06a7d503          	lhu	a0,106(a5)
     b7a:	b7c5                	j	b5a <USBFSD_UEP_CTRL_Get+0x1e>
     b7c:	06e7d503          	lhu	a0,110(a5)
     b80:	bfe9                	j	b5a <USBFSD_UEP_CTRL_Get+0x1e>
     b82:	4501                	li	a0,0
     b84:	8082                	ret

00000b86 <USBFS_Endp_DataUp>:
     b86:	fff50793          	addi	a5,a0,-1 # 40010fff <_eusrstack+0x2000bfff>
     b8a:	0ff7f793          	andi	a5,a5,255
     b8e:	4719                	li	a4,6
     b90:	06f76f63          	bltu	a4,a5,c0e <USBFS_Endp_DataUp+0x88>
     b94:	d82ff2ef          	jal	t0,116 <__riscv_save_4>
     b98:	85c18713          	addi	a4,gp,-1956 # 200000f4 <USBFS_Endp_Busy>
     b9c:	972a                	add	a4,a4,a0
     b9e:	2318                	lbu	a4,0(a4)
     ba0:	85c18a13          	addi	s4,gp,-1956 # 200000f4 <USBFS_Endp_Busy>
     ba4:	842a                	mv	s0,a0
     ba6:	0ff77713          	andi	a4,a4,255
     baa:	4785                	li	a5,1
     bac:	eb29                	bnez	a4,bfe <USBFS_Endp_DataUp+0x78>
     bae:	89b6                	mv	s3,a3
     bb0:	84b2                	mv	s1,a2
     bb2:	892e                	mv	s2,a1
     bb4:	3da9                	jal	a0e <USBFS_Endpoint_Mode_Get>
     bb6:	00457713          	andi	a4,a0,4
     bba:	4781                	li	a5,0
     bbc:	c329                	beqz	a4,bfe <USBFS_Endp_DataUp+0x78>
     bbe:	8921                	andi	a0,a0,8
     bc0:	c911                	beqz	a0,bd4 <USBFS_Endp_DataUp+0x4e>
     bc2:	8522                	mv	a0,s0
     bc4:	3539                	jal	9d2 <USBFSD_UEP_BUF>
     bc6:	8626                	mv	a2,s1
     bc8:	85ca                	mv	a1,s2
     bca:	04050513          	addi	a0,a0,64
     bce:	431000ef          	jal	ra,17fe <memcpy>
     bd2:	a801                	j	be2 <USBFS_Endp_DataUp+0x5c>
     bd4:	02099863          	bnez	s3,c04 <USBFS_Endp_DataUp+0x7e>
     bd8:	01091593          	slli	a1,s2,0x10
     bdc:	81c1                	srli	a1,a1,0x10
     bde:	8522                	mv	a0,s0
     be0:	3d9d                	jal	a56 <USBFSD_UEP_DMA_Set>
     be2:	008a07b3          	add	a5,s4,s0
     be6:	4705                	li	a4,1
     be8:	85a6                	mv	a1,s1
     bea:	8522                	mv	a0,s0
     bec:	a398                	sb	a4,0(a5)
     bee:	35c9                	jal	ab0 <USBFSD_UEP_TLEN_Set>
     bf0:	8522                	mv	a0,s0
     bf2:	37a9                	jal	b3c <USBFSD_UEP_CTRL_Get>
     bf4:	ffc57593          	andi	a1,a0,-4
     bf8:	8522                	mv	a0,s0
     bfa:	3df5                	jal	af6 <USBFSD_UEP_CTRL_Set>
     bfc:	4781                	li	a5,0
     bfe:	853e                	mv	a0,a5
     c00:	d4aff06f          	j	14a <__riscv_restore_4>
     c04:	8522                	mv	a0,s0
     c06:	33f1                	jal	9d2 <USBFSD_UEP_BUF>
     c08:	8626                	mv	a2,s1
     c0a:	85ca                	mv	a1,s2
     c0c:	b7c9                	j	bce <USBFS_Endp_DataUp+0x48>
     c0e:	4785                	li	a5,1
     c10:	853e                	mv	a0,a5
     c12:	8082                	ret

00000c14 <USBFS_IRQHandler>:
     c14:	1101                	addi	sp,sp,-32
     c16:	ce22                	sw	s0,28(sp)
     c18:	40023437          	lui	s0,0x40023
     c1c:	cc26                	sw	s1,24(sp)
     c1e:	ca4a                	sw	s2,20(sp)
     c20:	c84e                	sw	s3,16(sp)
     c22:	c652                	sw	s4,12(sp)
     c24:	c456                	sw	s5,8(sp)
     c26:	40040413          	addi	s0,s0,1024 # 40023400 <_eusrstack+0x2001e400>
     c2a:	2078                	lbu	a4,6(s0)
     c2c:	307c                	lbu	a5,7(s0)
     c2e:	0ff77713          	andi	a4,a4,255
     c32:	00277693          	andi	a3,a4,2
     c36:	4e068e63          	beqz	a3,1132 <USBFS_IRQHandler+0x51e>
     c3a:	0ff7f793          	andi	a5,a5,255
     c3e:	0307f713          	andi	a4,a5,48
     c42:	02000893          	li	a7,32
     c46:	05170a63          	beq	a4,a7,c9a <USBFS_IRQHandler+0x86>
     c4a:	03000693          	li	a3,48
     c4e:	16d70063          	beq	a4,a3,dae <USBFS_IRQHandler+0x19a>
     c52:	ef21                	bnez	a4,caa <USBFS_IRQHandler+0x96>
     c54:	03f7f713          	andi	a4,a5,63
     c58:	12070863          	beqz	a4,d88 <USBFS_IRQHandler+0x174>
     c5c:	468d                	li	a3,3
     c5e:	04d71663          	bne	a4,a3,caa <USBFS_IRQHandler+0x96>
     c62:	0407f793          	andi	a5,a5,64
     c66:	c3b1                	beqz	a5,caa <USBFS_IRQHandler+0x96>
     c68:	440c                	lw	a1,8(s0)
     c6a:	347e                	lhu	a5,46(s0)
     c6c:	05c2                	slli	a1,a1,0x10
     c6e:	0807c793          	xori	a5,a5,128
     c72:	b47e                	sh	a5,46(s0)
     c74:	347e                	lhu	a5,46(s0)
     c76:	81c1                	srli	a1,a1,0x10
     c78:	ae018513          	addi	a0,gp,-1312 # 20000378 <UDisk_Out_Buf>
     c7c:	07c2                	slli	a5,a5,0x10
     c7e:	83c1                	srli	a5,a5,0x10
     c80:	9bcd                	andi	a5,a5,-13
     c82:	0087e793          	ori	a5,a5,8
     c86:	b47e                	sh	a5,46(s0)
     c88:	367d                	jal	836 <UDISK_Out_EP_Deal>
     c8a:	347e                	lhu	a5,46(s0)
     c8c:	07c2                	slli	a5,a5,0x10
     c8e:	83c1                	srli	a5,a5,0x10
     c90:	9bcd                	andi	a5,a5,-13
     c92:	07c2                	slli	a5,a5,0x10
     c94:	83c1                	srli	a5,a5,0x10
     c96:	b47e                	sh	a5,46(s0)
     c98:	a809                	j	caa <USBFS_IRQHandler+0x96>
     c9a:	03f7f793          	andi	a5,a5,63
     c9e:	02e78663          	beq	a5,a4,cca <USBFS_IRQHandler+0xb6>
     ca2:	02200713          	li	a4,34
     ca6:	0ae78f63          	beq	a5,a4,d64 <USBFS_IRQHandler+0x150>
     caa:	400237b7          	lui	a5,0x40023
     cae:	4709                	li	a4,2
     cb0:	40e78323          	sb	a4,1030(a5) # 40023406 <_eusrstack+0x2001e406>
     cb4:	40078793          	addi	a5,a5,1024
     cb8:	4472                	lw	s0,28(sp)
     cba:	44e2                	lw	s1,24(sp)
     cbc:	4952                	lw	s2,20(sp)
     cbe:	49c2                	lw	s3,16(sp)
     cc0:	4a32                	lw	s4,12(sp)
     cc2:	4aa2                	lw	s5,8(sp)
     cc4:	6105                	addi	sp,sp,32
     cc6:	30200073          	mret
     cca:	86818793          	addi	a5,gp,-1944 # 20000100 <USBFS_SetupReqLen>
     cce:	239e                	lhu	a5,0(a5)
     cd0:	86818493          	addi	s1,gp,-1944 # 20000100 <USBFS_SetupReqLen>
     cd4:	07c2                	slli	a5,a5,0x10
     cd6:	83c1                	srli	a5,a5,0x10
     cd8:	e781                	bnez	a5,ce0 <USBFS_IRQHandler+0xcc>
     cda:	08000793          	li	a5,128
     cde:	b03e                	sh	a5,34(s0)
     ce0:	86a1c783          	lbu	a5,-1942(gp) # 20000102 <USBFS_SetupReqType>
     ce4:	0607f793          	andi	a5,a5,96
     ce8:	f3e9                	bnez	a5,caa <USBFS_IRQHandler+0x96>
     cea:	8641c783          	lbu	a5,-1948(gp) # 200000fc <USBFS_SetupReqCode>
     cee:	4715                	li	a4,5
     cf0:	0ff7f793          	andi	a5,a5,255
     cf4:	04e78c63          	beq	a5,a4,d4c <USBFS_IRQHandler+0x138>
     cf8:	4719                	li	a4,6
     cfa:	fae798e3          	bne	a5,a4,caa <USBFS_IRQHandler+0x96>
     cfe:	209e                	lhu	a5,0(s1)
     d00:	03f00713          	li	a4,63
     d04:	04000413          	li	s0,64
     d08:	00f76563          	bltu	a4,a5,d12 <USBFS_IRQHandler+0xfe>
     d0c:	2082                	lhu	s0,0(s1)
     d0e:	0442                	slli	s0,s0,0x10
     d10:	8041                	srli	s0,s0,0x10
     d12:	87018913          	addi	s2,gp,-1936 # 20000108 <pUSBFS_Descr>
     d16:	00092983          	lw	s3,0(s2)
     d1a:	8622                	mv	a2,s0
     d1c:	85ce                	mv	a1,s3
     d1e:	b2018513          	addi	a0,gp,-1248 # 200003b8 <USBFS_EP0_4Buf>
     d22:	2dd000ef          	jal	ra,17fe <memcpy>
     d26:	209e                	lhu	a5,0(s1)
     d28:	99a2                	add	s3,s3,s0
     d2a:	01392023          	sw	s3,0(s2)
     d2e:	8f81                	sub	a5,a5,s0
     d30:	07c2                	slli	a5,a5,0x10
     d32:	83c1                	srli	a5,a5,0x10
     d34:	a09e                	sh	a5,0(s1)
     d36:	400237b7          	lui	a5,0x40023
     d3a:	42879023          	sh	s0,1056(a5) # 40023420 <_eusrstack+0x2001e420>
     d3e:	4227d703          	lhu	a4,1058(a5)
     d42:	04074713          	xori	a4,a4,64
     d46:	42e79123          	sh	a4,1058(a5)
     d4a:	b785                	j	caa <USBFS_IRQHandler+0x96>
     d4c:	40023737          	lui	a4,0x40023
     d50:	40374783          	lbu	a5,1027(a4) # 40023403 <_eusrstack+0x2001e403>
     d54:	8581c683          	lbu	a3,-1960(gp) # 200000f0 <USBFS_DevAddr>
     d58:	0807f793          	andi	a5,a5,128
     d5c:	8fd5                	or	a5,a5,a3
     d5e:	40f701a3          	sb	a5,1027(a4)
     d62:	b7a1                	j	caa <USBFS_IRQHandler+0x96>
     d64:	343e                	lhu	a5,42(s0)
     d66:	0407c793          	xori	a5,a5,64
     d6a:	b43e                	sh	a5,42(s0)
     d6c:	343e                	lhu	a5,42(s0)
     d6e:	07c2                	slli	a5,a5,0x10
     d70:	83c1                	srli	a5,a5,0x10
     d72:	9bf1                	andi	a5,a5,-4
     d74:	0027e793          	ori	a5,a5,2
     d78:	b43e                	sh	a5,42(s0)
     d7a:	85c18793          	addi	a5,gp,-1956 # 200000f4 <USBFS_Endp_Busy>
     d7e:	00078123          	sb	zero,2(a5)
     d82:	9efff0ef          	jal	ra,770 <UDISK_In_EP_Deal>
     d86:	b715                	j	caa <USBFS_IRQHandler+0x96>
     d88:	4418                	lw	a4,8(s0)
     d8a:	0407f793          	andi	a5,a5,64
     d8e:	f0078ee3          	beqz	a5,caa <USBFS_IRQHandler+0x96>
     d92:	86a1c783          	lbu	a5,-1942(gp) # 20000102 <USBFS_SetupReqType>
     d96:	8681d783          	lhu	a5,-1944(gp) # 20000100 <USBFS_SetupReqLen>
     d9a:	07c2                	slli	a5,a5,0x10
     d9c:	83c1                	srli	a5,a5,0x10
     d9e:	f00796e3          	bnez	a5,caa <USBFS_IRQHandler+0x96>
     da2:	02041023          	sh	zero,32(s0)
     da6:	04000793          	li	a5,64
     daa:	b03e                	sh	a5,34(s0)
     dac:	bdfd                	j	caa <USBFS_IRQHandler+0x96>
     dae:	04200793          	li	a5,66
     db2:	d01c                	sw	a5,32(s0)
     db4:	08800793          	li	a5,136
     db8:	d01c                	sw	a5,32(s0)
     dba:	b2018713          	addi	a4,gp,-1248 # 200003b8 <USBFS_EP0_4Buf>
     dbe:	231c                	lbu	a5,0(a4)
     dc0:	86a18593          	addi	a1,gp,-1942 # 20000102 <USBFS_SetupReqType>
     dc4:	a19c                	sb	a5,0(a1)
     dc6:	331c                	lbu	a5,1(a4)
     dc8:	2376                	lhu	a3,6(a4)
     dca:	86418613          	addi	a2,gp,-1948 # 200000fc <USBFS_SetupReqCode>
     dce:	a21c                	sb	a5,0(a2)
     dd0:	00275803          	lhu	a6,2(a4)
     dd4:	86818793          	addi	a5,gp,-1944 # 20000100 <USBFS_SetupReqLen>
     dd8:	a396                	sh	a3,0(a5)
     dda:	86c18693          	addi	a3,gp,-1940 # 20000104 <USBFS_SetupReqValue>
     dde:	00475303          	lhu	t1,4(a4)
     de2:	01069023          	sh	a6,0(a3) # a000000 <_data_lma+0x9ffd31c>
     de6:	86618813          	addi	a6,gp,-1946 # 200000fe <USBFS_SetupReqIndex>
     dea:	00681023          	sh	t1,0(a6)
     dee:	0005c803          	lbu	a6,0(a1)
     df2:	86818413          	addi	s0,gp,-1944 # 20000100 <USBFS_SetupReqLen>
     df6:	86a18913          	addi	s2,gp,-1942 # 20000102 <USBFS_SetupReqType>
     dfa:	06087813          	andi	a6,a6,96
     dfe:	b2018593          	addi	a1,gp,-1248 # 200003b8 <USBFS_EP0_4Buf>
     e02:	86c18793          	addi	a5,gp,-1940 # 20000104 <USBFS_SetupReqValue>
     e06:	86618693          	addi	a3,gp,-1946 # 200000fe <USBFS_SetupReqIndex>
     e0a:	06080d63          	beqz	a6,e84 <USBFS_IRQHandler+0x270>
     e0e:	00094783          	lbu	a5,0(s2)
     e12:	0607f793          	andi	a5,a5,96
     e16:	0f179863          	bne	a5,a7,f06 <USBFS_IRQHandler+0x2f2>
     e1a:	221c                	lbu	a5,0(a2)
     e1c:	0fe00693          	li	a3,254
     e20:	04f69263          	bne	a3,a5,e64 <USBFS_IRQHandler+0x250>
     e24:	00070023          	sb	zero,0(a4)
     e28:	86e1a823          	sw	a4,-1936(gp) # 20000108 <pUSBFS_Descr>
     e2c:	00094783          	lbu	a5,0(s2)
     e30:	201a                	lhu	a4,0(s0)
     e32:	07e2                	slli	a5,a5,0x18
     e34:	87e1                	srai	a5,a5,0x18
     e36:	2c07de63          	bgez	a5,1112 <USBFS_IRQHandler+0x4fe>
     e3a:	04000793          	li	a5,64
     e3e:	00e7e563          	bltu	a5,a4,e48 <USBFS_IRQHandler+0x234>
     e42:	201e                	lhu	a5,0(s0)
     e44:	07c2                	slli	a5,a5,0x10
     e46:	83c1                	srli	a5,a5,0x10
     e48:	201a                	lhu	a4,0(s0)
     e4a:	8f1d                	sub	a4,a4,a5
     e4c:	0742                	slli	a4,a4,0x10
     e4e:	8341                	srli	a4,a4,0x10
     e50:	a01a                	sh	a4,0(s0)
     e52:	40023737          	lui	a4,0x40023
     e56:	42f71023          	sh	a5,1056(a4) # 40023420 <_eusrstack+0x2001e420>
     e5a:	04000793          	li	a5,64
     e5e:	42f71123          	sh	a5,1058(a4)
     e62:	b5a1                	j	caa <USBFS_IRQHandler+0x96>
     e64:	221c                	lbu	a5,0(a2)
     e66:	0ff00713          	li	a4,255
     e6a:	08f71e63          	bne	a4,a5,f06 <USBFS_IRQHandler+0x2f2>
     e6e:	840188a3          	sb	zero,-1967(gp) # 200000e9 <Udisk_Sense_Key>
     e72:	84018823          	sb	zero,-1968(gp) # 200000e8 <Udisk_Sense_ASC>
     e76:	84018423          	sb	zero,-1976(gp) # 200000e0 <Udisk_CSW_Status>
     e7a:	840189a3          	sb	zero,-1965(gp) # 200000eb <Udisk_Transfer_Status>
     e7e:	8401a023          	sw	zero,-1984(gp) # 200000d8 <UDISK_Transfer_DataLen>
     e82:	b76d                	j	e2c <USBFS_IRQHandler+0x218>
     e84:	2218                	lbu	a4,0(a2)
     e86:	462d                	li	a2,11
     e88:	0ff77713          	andi	a4,a4,255
     e8c:	06e66d63          	bltu	a2,a4,f06 <USBFS_IRQHandler+0x2f2>
     e90:	660d                	lui	a2,0x3
     e92:	070a                	slli	a4,a4,0x2
     e94:	b6060613          	addi	a2,a2,-1184 # 2b60 <UDISK_Rd_Format_Capacity+0xc8>
     e98:	9732                	add	a4,a4,a2
     e9a:	4318                	lw	a4,0(a4)
     e9c:	8702                	jr	a4
     e9e:	239a                	lhu	a4,0(a5)
     ea0:	4689                	li	a3,2
     ea2:	8321                	srli	a4,a4,0x8
     ea4:	87018993          	addi	s3,gp,-1936 # 20000108 <pUSBFS_Descr>
     ea8:	06d70863          	beq	a4,a3,f18 <USBFS_IRQHandler+0x304>
     eac:	460d                	li	a2,3
     eae:	08c70163          	beq	a4,a2,f30 <USBFS_IRQHandler+0x31c>
     eb2:	4785                	li	a5,1
     eb4:	08f71963          	bne	a4,a5,f46 <USBFS_IRQHandler+0x332>
     eb8:	678d                	lui	a5,0x3
     eba:	bf478713          	addi	a4,a5,-1036 # 2bf4 <MyDevDescr>
     ebe:	bf47c783          	lbu	a5,-1036(a5)
     ec2:	00e9a023          	sw	a4,0(s3)
     ec6:	4481                	li	s1,0
     ec8:	201a                	lhu	a4,0(s0)
     eca:	00e7f363          	bgeu	a5,a4,ed0 <USBFS_IRQHandler+0x2bc>
     ece:	a01e                	sh	a5,0(s0)
     ed0:	201e                	lhu	a5,0(s0)
     ed2:	03f00713          	li	a4,63
     ed6:	04000a13          	li	s4,64
     eda:	00f76763          	bltu	a4,a5,ee8 <USBFS_IRQHandler+0x2d4>
     ede:	00045a03          	lhu	s4,0(s0)
     ee2:	0a42                	slli	s4,s4,0x10
     ee4:	010a5a13          	srli	s4,s4,0x10
     ee8:	0009aa83          	lw	s5,0(s3)
     eec:	8652                	mv	a2,s4
     eee:	b2018513          	addi	a0,gp,-1248 # 200003b8 <USBFS_EP0_4Buf>
     ef2:	85d6                	mv	a1,s5
     ef4:	9a56                	add	s4,s4,s5
     ef6:	109000ef          	jal	ra,17fe <memcpy>
     efa:	0149a023          	sw	s4,0(s3)
     efe:	0ff00793          	li	a5,255
     f02:	f2f495e3          	bne	s1,a5,e2c <USBFS_IRQHandler+0x218>
     f06:	04300713          	li	a4,67
     f0a:	400237b7          	lui	a5,0x40023
     f0e:	42e79123          	sh	a4,1058(a5) # 40023422 <_eusrstack+0x2001e422>
     f12:	08c00713          	li	a4,140
     f16:	bd05                	j	d46 <USBFS_IRQHandler+0x132>
     f18:	670d                	lui	a4,0x3
     f1a:	bd470713          	addi	a4,a4,-1068 # 2bd4 <MyCfgDescr>
     f1e:	333c                	lbu	a5,3(a4)
     f20:	00e9a023          	sw	a4,0(s3)
     f24:	2338                	lbu	a4,2(a4)
     f26:	07a2                	slli	a5,a5,0x8
     f28:	97ba                	add	a5,a5,a4
     f2a:	07c2                	slli	a5,a5,0x10
     f2c:	83c1                	srli	a5,a5,0x10
     f2e:	bf61                	j	ec6 <USBFS_IRQHandler+0x2b2>
     f30:	239e                	lhu	a5,0(a5)
     f32:	4605                	li	a2,1
     f34:	0ff7f793          	andi	a5,a5,255
     f38:	02c78263          	beq	a5,a2,f5c <USBFS_IRQHandler+0x348>
     f3c:	cb89                	beqz	a5,f4e <USBFS_IRQHandler+0x33a>
     f3e:	02d78763          	beq	a5,a3,f6c <USBFS_IRQHandler+0x358>
     f42:	02e78d63          	beq	a5,a4,f7c <USBFS_IRQHandler+0x368>
     f46:	4781                	li	a5,0
     f48:	0ff00493          	li	s1,255
     f4c:	bfb5                	j	ec8 <USBFS_IRQHandler+0x2b4>
     f4e:	82418713          	addi	a4,gp,-2012 # 200000bc <MyLangDescr>
     f52:	00e9a023          	sw	a4,0(s3)
     f56:	8241c783          	lbu	a5,-2012(gp) # 200000bc <MyLangDescr>
     f5a:	b7b5                	j	ec6 <USBFS_IRQHandler+0x2b2>
     f5c:	678d                	lui	a5,0x3
     f5e:	c0878713          	addi	a4,a5,-1016 # 2c08 <MyManuInfo>
     f62:	00e9a023          	sw	a4,0(s3)
     f66:	c087c783          	lbu	a5,-1016(a5)
     f6a:	bfb1                	j	ec6 <USBFS_IRQHandler+0x2b2>
     f6c:	678d                	lui	a5,0x3
     f6e:	c1878713          	addi	a4,a5,-1000 # 2c18 <MyProdInfo>
     f72:	00e9a023          	sw	a4,0(s3)
     f76:	c187c783          	lbu	a5,-1000(a5)
     f7a:	b7b1                	j	ec6 <USBFS_IRQHandler+0x2b2>
     f7c:	678d                	lui	a5,0x3
     f7e:	c3078713          	addi	a4,a5,-976 # 2c30 <MySerNumInfo>
     f82:	00e9a023          	sw	a4,0(s3)
     f86:	c307c783          	lbu	a5,-976(a5)
     f8a:	bf35                	j	ec6 <USBFS_IRQHandler+0x2b2>
     f8c:	239e                	lhu	a5,0(a5)
     f8e:	0ff7f793          	andi	a5,a5,255
     f92:	84f18c23          	sb	a5,-1960(gp) # 200000f0 <USBFS_DevAddr>
     f96:	bd59                	j	e2c <USBFS_IRQHandler+0x218>
     f98:	8591c783          	lbu	a5,-1959(gp) # 200000f1 <USBFS_DevConfig>
     f9c:	a19c                	sb	a5,0(a1)
     f9e:	201a                	lhu	a4,0(s0)
     fa0:	4785                	li	a5,1
     fa2:	e8e7f5e3          	bgeu	a5,a4,e2c <USBFS_IRQHandler+0x218>
     fa6:	a01e                	sh	a5,0(s0)
     fa8:	b551                	j	e2c <USBFS_IRQHandler+0x218>
     faa:	239e                	lhu	a5,0(a5)
     fac:	0ff7f793          	andi	a5,a5,255
     fb0:	84f18ca3          	sb	a5,-1959(gp) # 200000f1 <USBFS_DevConfig>
     fb4:	4705                	li	a4,1
     fb6:	84e18d23          	sb	a4,-1958(gp) # 200000f2 <USBFS_DevEnumStatus>
     fba:	bd8d                	j	e2c <USBFS_IRQHandler+0x218>
     fbc:	00094703          	lbu	a4,0(s2)
     fc0:	8b7d                	andi	a4,a4,31
     fc2:	ef11                	bnez	a4,fde <USBFS_IRQHandler+0x3ca>
     fc4:	239e                	lhu	a5,0(a5)
     fc6:	4705                	li	a4,1
     fc8:	0ff7f793          	andi	a5,a5,255
     fcc:	e6e790e3          	bne	a5,a4,e2c <USBFS_IRQHandler+0x218>
     fd0:	85b18793          	addi	a5,gp,-1957 # 200000f3 <USBFS_DevSleepStatus>
     fd4:	2398                	lbu	a4,0(a5)
     fd6:	0fe77713          	andi	a4,a4,254
     fda:	a398                	sb	a4,0(a5)
     fdc:	bd81                	j	e2c <USBFS_IRQHandler+0x218>
     fde:	00094703          	lbu	a4,0(s2)
     fe2:	4609                	li	a2,2
     fe4:	8b7d                	andi	a4,a4,31
     fe6:	f2c710e3          	bne	a4,a2,f06 <USBFS_IRQHandler+0x2f2>
     fea:	239e                	lhu	a5,0(a5)
     fec:	0ff7f793          	andi	a5,a5,255
     ff0:	f0079be3          	bnez	a5,f06 <USBFS_IRQHandler+0x2f2>
     ff4:	2296                	lhu	a3,0(a3)
     ff6:	400237b7          	lui	a5,0x40023
     ffa:	460d                	li	a2,3
     ffc:	0ff6f693          	andi	a3,a3,255
    1000:	40078793          	addi	a5,a5,1024 # 40023400 <_eusrstack+0x2001e400>
    1004:	00c68f63          	beq	a3,a2,1022 <USBFS_IRQHandler+0x40e>
    1008:	08200613          	li	a2,130
    100c:	eec69de3          	bne	a3,a2,f06 <USBFS_IRQHandler+0x2f2>
    1010:	d798                	sw	a4,40(a5)
    1012:	8531c783          	lbu	a5,-1965(gp) # 200000eb <Udisk_Transfer_Status>
    1016:	8b91                	andi	a5,a5,4
    1018:	e0078ae3          	beqz	a5,e2c <USBFS_IRQHandler+0x218>
    101c:	e92ff0ef          	jal	ra,6ae <UDISK_Up_CSW>
    1020:	b531                	j	e2c <USBFS_IRQHandler+0x218>
    1022:	02079723          	sh	zero,46(a5)
    1026:	b7f5                	j	1012 <USBFS_IRQHandler+0x3fe>
    1028:	00094703          	lbu	a4,0(s2)
    102c:	8b7d                	andi	a4,a4,31
    102e:	e705                	bnez	a4,1056 <USBFS_IRQHandler+0x442>
    1030:	239e                	lhu	a5,0(a5)
    1032:	4705                	li	a4,1
    1034:	0ff7f793          	andi	a5,a5,255
    1038:	ece797e3          	bne	a5,a4,f06 <USBFS_IRQHandler+0x2f2>
    103c:	678d                	lui	a5,0x3
    103e:	bdb7c783          	lbu	a5,-1061(a5) # 2bdb <MyCfgDescr+0x7>
    1042:	0207f793          	andi	a5,a5,32
    1046:	ec0780e3          	beqz	a5,f06 <USBFS_IRQHandler+0x2f2>
    104a:	85b18793          	addi	a5,gp,-1957 # 200000f3 <USBFS_DevSleepStatus>
    104e:	2398                	lbu	a4,0(a5)
    1050:	00176713          	ori	a4,a4,1
    1054:	b759                	j	fda <USBFS_IRQHandler+0x3c6>
    1056:	00094703          	lbu	a4,0(s2)
    105a:	4609                	li	a2,2
    105c:	8b7d                	andi	a4,a4,31
    105e:	eac714e3          	bne	a4,a2,f06 <USBFS_IRQHandler+0x2f2>
    1062:	239e                	lhu	a5,0(a5)
    1064:	0ff7f793          	andi	a5,a5,255
    1068:	e8079fe3          	bnez	a5,f06 <USBFS_IRQHandler+0x2f2>
    106c:	229a                	lhu	a4,0(a3)
    106e:	400237b7          	lui	a5,0x40023
    1072:	468d                	li	a3,3
    1074:	0ff77713          	andi	a4,a4,255
    1078:	40078793          	addi	a5,a5,1024 # 40023400 <_eusrstack+0x2001e400>
    107c:	00d70b63          	beq	a4,a3,1092 <USBFS_IRQHandler+0x47e>
    1080:	08200693          	li	a3,130
    1084:	e8d711e3          	bne	a4,a3,f06 <USBFS_IRQHandler+0x2f2>
    1088:	37ba                	lhu	a4,42(a5)
    108a:	00376713          	ori	a4,a4,3
    108e:	b7ba                	sh	a4,42(a5)
    1090:	bb71                	j	e2c <USBFS_IRQHandler+0x218>
    1092:	37fa                	lhu	a4,46(a5)
    1094:	00c76713          	ori	a4,a4,12
    1098:	b7fa                	sh	a4,46(a5)
    109a:	bb49                	j	e2c <USBFS_IRQHandler+0x218>
    109c:	00058023          	sb	zero,0(a1)
    10a0:	bdfd                	j	f9e <USBFS_IRQHandler+0x38a>
    10a2:	00094783          	lbu	a5,0(s2)
    10a6:	00059023          	sh	zero,0(a1)
    10aa:	8bfd                	andi	a5,a5,31
    10ac:	ef91                	bnez	a5,10c8 <USBFS_IRQHandler+0x4b4>
    10ae:	85b1c783          	lbu	a5,-1957(gp) # 200000f3 <USBFS_DevSleepStatus>
    10b2:	4481                	li	s1,0
    10b4:	8b85                	andi	a5,a5,1
    10b6:	c399                	beqz	a5,10bc <USBFS_IRQHandler+0x4a8>
    10b8:	4789                	li	a5,2
    10ba:	a19c                	sb	a5,0(a1)
    10bc:	201a                	lhu	a4,0(s0)
    10be:	4789                	li	a5,2
    10c0:	e2e7ffe3          	bgeu	a5,a4,efe <USBFS_IRQHandler+0x2ea>
    10c4:	a01e                	sh	a5,0(s0)
    10c6:	bd25                	j	efe <USBFS_IRQHandler+0x2ea>
    10c8:	00094783          	lbu	a5,0(s2)
    10cc:	4709                	li	a4,2
    10ce:	0ff00493          	li	s1,255
    10d2:	8bfd                	andi	a5,a5,31
    10d4:	fee794e3          	bne	a5,a4,10bc <USBFS_IRQHandler+0x4a8>
    10d8:	229a                	lhu	a4,0(a3)
    10da:	400237b7          	lui	a5,0x40023
    10de:	468d                	li	a3,3
    10e0:	0ff77713          	andi	a4,a4,255
    10e4:	40078793          	addi	a5,a5,1024 # 40023400 <_eusrstack+0x2001e400>
    10e8:	00d70f63          	beq	a4,a3,1106 <USBFS_IRQHandler+0x4f2>
    10ec:	08200613          	li	a2,130
    10f0:	fcc716e3          	bne	a4,a2,10bc <USBFS_IRQHandler+0x4a8>
    10f4:	37be                	lhu	a5,42(a5)
    10f6:	4481                	li	s1,0
    10f8:	8b8d                	andi	a5,a5,3
    10fa:	fcd791e3          	bne	a5,a3,10bc <USBFS_IRQHandler+0x4a8>
    10fe:	4785                	li	a5,1
    1100:	a19c                	sb	a5,0(a1)
    1102:	4481                	li	s1,0
    1104:	bf65                	j	10bc <USBFS_IRQHandler+0x4a8>
    1106:	37fe                	lhu	a5,46(a5)
    1108:	4731                	li	a4,12
    110a:	8bb1                	andi	a5,a5,12
    110c:	fee79be3          	bne	a5,a4,1102 <USBFS_IRQHandler+0x4ee>
    1110:	b7fd                	j	10fe <USBFS_IRQHandler+0x4ea>
    1112:	0742                	slli	a4,a4,0x10
    1114:	400237b7          	lui	a5,0x40023
    1118:	8341                	srli	a4,a4,0x10
    111a:	40078793          	addi	a5,a5,1024 # 40023400 <_eusrstack+0x2001e400>
    111e:	e719                	bnez	a4,112c <USBFS_IRQHandler+0x518>
    1120:	02079023          	sh	zero,32(a5)
    1124:	04000713          	li	a4,64
    1128:	b3ba                	sh	a4,34(a5)
    112a:	b641                	j	caa <USBFS_IRQHandler+0x96>
    112c:	08000713          	li	a4,128
    1130:	bfe5                	j	1128 <USBFS_IRQHandler+0x514>
    1132:	00177793          	andi	a5,a4,1
    1136:	c385                	beqz	a5,1156 <USBFS_IRQHandler+0x542>
    1138:	84018ca3          	sb	zero,-1959(gp) # 200000f1 <USBFS_DevConfig>
    113c:	84018c23          	sb	zero,-1960(gp) # 200000f0 <USBFS_DevAddr>
    1140:	84018da3          	sb	zero,-1957(gp) # 200000f3 <USBFS_DevSleepStatus>
    1144:	84018d23          	sb	zero,-1958(gp) # 200000f2 <USBFS_DevEnumStatus>
    1148:	000401a3          	sb	zero,3(s0)
    114c:	f70ff0ef          	jal	ra,8bc <USBFS_Device_Endp_Init>
    1150:	4785                	li	a5,1
    1152:	a07c                	sb	a5,6(s0)
    1154:	b695                	j	cb8 <USBFS_IRQHandler+0xa4>
    1156:	00477793          	andi	a5,a4,4
    115a:	c78d                	beqz	a5,1184 <USBFS_IRQHandler+0x570>
    115c:	4791                	li	a5,4
    115e:	a07c                	sb	a5,6(s0)
    1160:	4529                	li	a0,10
    1162:	2bbd                	jal	16e0 <Delay_Us>
    1164:	3058                	lbu	a4,5(s0)
    1166:	85b18793          	addi	a5,gp,-1957 # 200000f3 <USBFS_DevSleepStatus>
    116a:	8b11                	andi	a4,a4,4
    116c:	c719                	beqz	a4,117a <USBFS_IRQHandler+0x566>
    116e:	2398                	lbu	a4,0(a5)
    1170:	00276713          	ori	a4,a4,2
    1174:	a398                	sb	a4,0(a5)
    1176:	239c                	lbu	a5,0(a5)
    1178:	b681                	j	cb8 <USBFS_IRQHandler+0xa4>
    117a:	2398                	lbu	a4,0(a5)
    117c:	0fd77713          	andi	a4,a4,253
    1180:	a398                	sb	a4,0(a5)
    1182:	be1d                	j	cb8 <USBFS_IRQHandler+0xa4>
    1184:	a078                	sb	a4,6(s0)
    1186:	be0d                	j	cb8 <USBFS_IRQHandler+0xa4>

00001188 <main>:
    1188:	fa9fe2ef          	jal	t0,130 <__riscv_save_0>
    118c:	232d                	jal	16b6 <Delay_Init>
    118e:	6571                	lui	a0,0x1c
    1190:	20050513          	addi	a0,a0,512 # 1c200 <_data_lma+0x1951c>
    1194:	2b65                	jal	174c <USART_Printf_Init>
    1196:	200007b7          	lui	a5,0x20000
    119a:	09c7a583          	lw	a1,156(a5) # 2000009c <SystemCoreClock>
    119e:	00003537          	lui	a0,0x3
    11a2:	b9050513          	addi	a0,a0,-1136 # 2b90 <UDISK_Rd_Format_Capacity+0xf8>
    11a6:	2729                	jal	18b0 <iprintf>
    11a8:	4529                	li	a0,10
    11aa:	23b5                	jal	1716 <Delay_Ms>
    11ac:	00003537          	lui	a0,0x3
    11b0:	ba050513          	addi	a0,a0,-1120 # 2ba0 <UDISK_Rd_Format_Capacity+0x108>
    11b4:	011000ef          	jal	ra,19c4 <puts>
    11b8:	05400713          	li	a4,84
    11bc:	82e1a823          	sw	a4,-2000(gp) # 200000c8 <_edata>
    11c0:	20000693          	li	a3,512
    11c4:	82d19a23          	sh	a3,-1996(gp) # 200000cc <Flash_Sector_Size>
    11c8:	8301a703          	lw	a4,-2000(gp) # 200000c8 <_edata>
    11cc:	84e1a623          	sw	a4,-1972(gp) # 200000e4 <Udisk_Capability>
    11d0:	8521c783          	lbu	a5,-1966(gp) # 200000ea <Udisk_Status>
    11d4:	0017e793          	ori	a5,a5,1
    11d8:	84f18923          	sb	a5,-1966(gp) # 200000ea <Udisk_Status>
    11dc:	ec8ff0ef          	jal	ra,8a4 <USBFS_RCC_Init>
    11e0:	4585                	li	a1,1
    11e2:	4505                	li	a0,1
    11e4:	f72ff0ef          	jal	ra,956 <USBFS_Device_Init>
    11e8:	e000e7b7          	lui	a5,0xe000e
    11ec:	6709                	lui	a4,0x2
    11ee:	10e7a223          	sw	a4,260(a5) # e000e104 <_eusrstack+0xc0009104>
    11f2:	a001                	j	11f2 <main+0x6a>

000011f4 <SystemInit>:
    11f4:	400217b7          	lui	a5,0x40021
    11f8:	4398                	lw	a4,0(a5)
    11fa:	f90006b7          	lui	a3,0xf9000
    11fe:	f5f68693          	addi	a3,a3,-161 # f8ffff5f <_eusrstack+0xd8ffaf5f>
    1202:	00176713          	ori	a4,a4,1
    1206:	c398                	sw	a4,0(a5)
    1208:	43d8                	lw	a4,4(a5)
    120a:	05076713          	ori	a4,a4,80
    120e:	c3d8                	sw	a4,4(a5)
    1210:	43d8                	lw	a4,4(a5)
    1212:	8f75                	and	a4,a4,a3
    1214:	c3d8                	sw	a4,4(a5)
    1216:	40022737          	lui	a4,0x40022
    121a:	4314                	lw	a3,0(a4)
    121c:	9af1                	andi	a3,a3,-4
    121e:	c314                	sw	a3,0(a4)
    1220:	4314                	lw	a3,0(a4)
    1222:	0026e693          	ori	a3,a3,2
    1226:	c314                	sw	a3,0(a4)
    1228:	43d8                	lw	a4,4(a5)
    122a:	f0f77713          	andi	a4,a4,-241
    122e:	c3d8                	sw	a4,4(a5)
    1230:	43d8                	lw	a4,4(a5)
    1232:	c3d8                	sw	a4,4(a5)
    1234:	8082                	ret

00001236 <ADC1_IRQHandler>:
    1236:	a001                	j	1236 <ADC1_IRQHandler>

00001238 <handle_reset>:
    1238:	1ffff197          	auipc	gp,0x1ffff
    123c:	66018193          	addi	gp,gp,1632 # 20000898 <__global_pointer$>
    1240:	20004117          	auipc	sp,0x20004
    1244:	dc010113          	addi	sp,sp,-576 # 20005000 <_eusrstack>
    1248:	00002517          	auipc	a0,0x2
    124c:	a9c50513          	addi	a0,a0,-1380 # 2ce4 <_data_lma>
    1250:	1ffff597          	auipc	a1,0x1ffff
    1254:	db058593          	addi	a1,a1,-592 # 20000000 <_data_vma>
    1258:	83018613          	addi	a2,gp,-2000 # 200000c8 <_edata>
    125c:	00c5fa63          	bgeu	a1,a2,1270 <handle_reset+0x38>
    1260:	00052283          	lw	t0,0(a0)
    1264:	0055a023          	sw	t0,0(a1)
    1268:	0511                	addi	a0,a0,4
    126a:	0591                	addi	a1,a1,4
    126c:	fec5eae3          	bltu	a1,a2,1260 <handle_reset+0x28>
    1270:	83018513          	addi	a0,gp,-2000 # 200000c8 <_edata>
    1274:	b6418593          	addi	a1,gp,-1180 # 200003fc <_ebss>
    1278:	00b57763          	bgeu	a0,a1,1286 <handle_reset+0x4e>
    127c:	00052023          	sw	zero,0(a0)
    1280:	0511                	addi	a0,a0,4
    1282:	feb56de3          	bltu	a0,a1,127c <handle_reset+0x44>
    1286:	42fd                	li	t0,31
    1288:	bc029073          	csrw	0xbc0,t0
    128c:	428d                	li	t0,3
    128e:	80429073          	csrw	0x804,t0
    1292:	08800293          	li	t0,136
    1296:	3002a073          	csrs	mstatus,t0
    129a:	fffff297          	auipc	t0,0xfffff
    129e:	d6a28293          	addi	t0,t0,-662 # 4 <_einit>
    12a2:	0032e293          	ori	t0,t0,3
    12a6:	30529073          	csrw	mtvec,t0
    12aa:	f4bff0ef          	jal	ra,11f4 <SystemInit>
    12ae:	00000297          	auipc	t0,0x0
    12b2:	eda28293          	addi	t0,t0,-294 # 1188 <main>
    12b6:	34129073          	csrw	mepc,t0
    12ba:	30200073          	mret

000012be <FLASH_Unlock_Fast>:
    12be:	456706b7          	lui	a3,0x45670
    12c2:	400227b7          	lui	a5,0x40022
    12c6:	12368693          	addi	a3,a3,291 # 45670123 <_eusrstack+0x2566b123>
    12ca:	cdef9737          	lui	a4,0xcdef9
    12ce:	c3d4                	sw	a3,4(a5)
    12d0:	9ab70713          	addi	a4,a4,-1621 # cdef89ab <_eusrstack+0xadef39ab>
    12d4:	c3d8                	sw	a4,4(a5)
    12d6:	d3d4                	sw	a3,36(a5)
    12d8:	d3d8                	sw	a4,36(a5)
    12da:	8082                	ret

000012dc <FLASH_Lock_Fast>:
    12dc:	40022737          	lui	a4,0x40022
    12e0:	4b1c                	lw	a5,16(a4)
    12e2:	66a1                	lui	a3,0x8
    12e4:	8fd5                	or	a5,a5,a3
    12e6:	cb1c                	sw	a5,16(a4)
    12e8:	8082                	ret

000012ea <FLASH_ErasePage_Fast>:
    12ea:	400227b7          	lui	a5,0x40022
    12ee:	4b98                	lw	a4,16(a5)
    12f0:	7681                	lui	a3,0xfffe0
    12f2:	fdf68693          	addi	a3,a3,-33 # fffdffdf <_eusrstack+0xdffdafdf>
    12f6:	8f75                	and	a4,a4,a3
    12f8:	cb98                	sw	a4,16(a5)
    12fa:	4b98                	lw	a4,16(a5)
    12fc:	000206b7          	lui	a3,0x20
    1300:	8f55                	or	a4,a4,a3
    1302:	cb98                	sw	a4,16(a5)
    1304:	cbc8                	sw	a0,20(a5)
    1306:	4b98                	lw	a4,16(a5)
    1308:	04076713          	ori	a4,a4,64
    130c:	cb98                	sw	a4,16(a5)
    130e:	47d8                	lw	a4,12(a5)
    1310:	8b05                	andi	a4,a4,1
    1312:	ff75                	bnez	a4,130e <FLASH_ErasePage_Fast+0x24>
    1314:	4b98                	lw	a4,16(a5)
    1316:	7681                	lui	a3,0xfffe0
    1318:	16fd                	addi	a3,a3,-1
    131a:	8f75                	and	a4,a4,a3
    131c:	cb98                	sw	a4,16(a5)
    131e:	8082                	ret

00001320 <FLASH_ROM_WRITE>:
    1320:	f8000737          	lui	a4,0xf8000
    1324:	67bd                	lui	a5,0xf
    1326:	972a                	add	a4,a4,a0
    1328:	7ff78793          	addi	a5,a5,2047 # f7ff <_data_lma+0xcb1b>
    132c:	0ee7e363          	bltu	a5,a4,1412 <FLASH_ROM_WRITE+0xf2>
    1330:	08010737          	lui	a4,0x8010
    1334:	00c506b3          	add	a3,a0,a2
    1338:	80070713          	addi	a4,a4,-2048 # 800f800 <_data_lma+0x800cb1c>
    133c:	0fd00793          	li	a5,253
    1340:	0cd76563          	bltu	a4,a3,140a <FLASH_ROM_WRITE+0xea>
    1344:	00c56733          	or	a4,a0,a2
    1348:	0ff77713          	andi	a4,a4,255
    134c:	0fe00793          	li	a5,254
    1350:	ef4d                	bnez	a4,140a <FLASH_ROM_WRITE+0xea>
    1352:	ce45                	beqz	a2,140a <FLASH_ROM_WRITE+0xea>
    1354:	456706b7          	lui	a3,0x45670
    1358:	400227b7          	lui	a5,0x40022
    135c:	12368693          	addi	a3,a3,291 # 45670123 <_eusrstack+0x2566b123>
    1360:	cdef9737          	lui	a4,0xcdef9
    1364:	c3d4                	sw	a3,4(a5)
    1366:	9ab70713          	addi	a4,a4,-1621 # cdef89ab <_eusrstack+0xadef39ab>
    136a:	c3d8                	sw	a4,4(a5)
    136c:	d3d4                	sw	a3,36(a5)
    136e:	d3d8                	sw	a4,36(a5)
    1370:	4b98                	lw	a4,16(a5)
    1372:	7681                	lui	a3,0xfffe0
    1374:	fdf68693          	addi	a3,a3,-33 # fffdffdf <_eusrstack+0xdffdafdf>
    1378:	8f75                	and	a4,a4,a3
    137a:	76c1                	lui	a3,0xffff0
    137c:	8221                	srli	a2,a2,0x8
    137e:	cb98                	sw	a4,16(a5)
    1380:	8d89                	sub	a1,a1,a0
    1382:	68c1                	lui	a7,0x10
    1384:	00080337          	lui	t1,0x80
    1388:	00040e37          	lui	t3,0x40
    138c:	10000e93          	li	t4,256
    1390:	16fd                	addi	a3,a3,-1
    1392:	4b98                	lw	a4,16(a5)
    1394:	00a58f33          	add	t5,a1,a0
    1398:	01176733          	or	a4,a4,a7
    139c:	cb98                	sw	a4,16(a5)
    139e:	4b98                	lw	a4,16(a5)
    13a0:	00676733          	or	a4,a4,t1
    13a4:	cb98                	sw	a4,16(a5)
    13a6:	47d8                	lw	a4,12(a5)
    13a8:	8b05                	andi	a4,a4,1
    13aa:	ff75                	bnez	a4,13a6 <FLASH_ROM_WRITE+0x86>
    13ac:	00ef0833          	add	a6,t5,a4
    13b0:	00082f83          	lw	t6,0(a6)
    13b4:	00e50833          	add	a6,a0,a4
    13b8:	01f82023          	sw	t6,0(a6)
    13bc:	0107a803          	lw	a6,16(a5) # 40022010 <_eusrstack+0x2001d010>
    13c0:	01c86833          	or	a6,a6,t3
    13c4:	0107a823          	sw	a6,16(a5)
    13c8:	00c7a803          	lw	a6,12(a5)
    13cc:	00187813          	andi	a6,a6,1
    13d0:	fe081ce3          	bnez	a6,13c8 <FLASH_ROM_WRITE+0xa8>
    13d4:	0711                	addi	a4,a4,4
    13d6:	fdd71be3          	bne	a4,t4,13ac <FLASH_ROM_WRITE+0x8c>
    13da:	cbc8                	sw	a0,20(a5)
    13dc:	4b98                	lw	a4,16(a5)
    13de:	10050813          	addi	a6,a0,256
    13e2:	04076713          	ori	a4,a4,64
    13e6:	cb98                	sw	a4,16(a5)
    13e8:	47d8                	lw	a4,12(a5)
    13ea:	8b05                	andi	a4,a4,1
    13ec:	ff75                	bnez	a4,13e8 <FLASH_ROM_WRITE+0xc8>
    13ee:	4b98                	lw	a4,16(a5)
    13f0:	167d                	addi	a2,a2,-1
    13f2:	8f75                	and	a4,a4,a3
    13f4:	cb98                	sw	a4,16(a5)
    13f6:	ee01                	bnez	a2,140e <FLASH_ROM_WRITE+0xee>
    13f8:	4b98                	lw	a4,16(a5)
    13fa:	66a1                	lui	a3,0x8
    13fc:	8f55                	or	a4,a4,a3
    13fe:	cb98                	sw	a4,16(a5)
    1400:	4b98                	lw	a4,16(a5)
    1402:	08076713          	ori	a4,a4,128
    1406:	cb98                	sw	a4,16(a5)
    1408:	4791                	li	a5,4
    140a:	853e                	mv	a0,a5
    140c:	8082                	ret
    140e:	8542                	mv	a0,a6
    1410:	b749                	j	1392 <FLASH_ROM_WRITE+0x72>
    1412:	0ff00793          	li	a5,255
    1416:	bfd5                	j	140a <FLASH_ROM_WRITE+0xea>

00001418 <GPIO_Init>:
    1418:	4598                	lw	a4,8(a1)
    141a:	01077793          	andi	a5,a4,16
    141e:	00f77813          	andi	a6,a4,15
    1422:	c781                	beqz	a5,142a <GPIO_Init+0x12>
    1424:	41dc                	lw	a5,4(a1)
    1426:	00f86833          	or	a6,a6,a5
    142a:	4194                	lw	a3,0(a1)
    142c:	4781                	li	a5,0
    142e:	0ff6f613          	andi	a2,a3,255
    1432:	c239                	beqz	a2,1478 <GPIO_Init+0x60>
    1434:	411c                	lw	a5,0(a0)
    1436:	4601                	li	a2,0
    1438:	4e85                	li	t4,1
    143a:	4f3d                	li	t5,15
    143c:	02800f93          	li	t6,40
    1440:	04800293          	li	t0,72
    1444:	4e21                	li	t3,8
    1446:	00ce98b3          	sll	a7,t4,a2
    144a:	0116f5b3          	and	a1,a3,a7
    144e:	02b89163          	bne	a7,a1,1470 <GPIO_Init+0x58>
    1452:	00261313          	slli	t1,a2,0x2
    1456:	006f15b3          	sll	a1,t5,t1
    145a:	fff5c593          	not	a1,a1
    145e:	8fed                	and	a5,a5,a1
    1460:	00681333          	sll	t1,a6,t1
    1464:	00f367b3          	or	a5,t1,a5
    1468:	0df71763          	bne	a4,t6,1536 <GPIO_Init+0x11e>
    146c:	01152a23          	sw	a7,20(a0)
    1470:	0605                	addi	a2,a2,1
    1472:	fdc61ae3          	bne	a2,t3,1446 <GPIO_Init+0x2e>
    1476:	c11c                	sw	a5,0(a0)
    1478:	6641                	lui	a2,0x10
    147a:	f0060613          	addi	a2,a2,-256 # ff00 <_data_lma+0xd21c>
    147e:	8e75                	and	a2,a2,a3
    1480:	c23d                	beqz	a2,14e6 <GPIO_Init+0xce>
    1482:	40011637          	lui	a2,0x40011
    1486:	80060593          	addi	a1,a2,-2048 # 40010800 <_eusrstack+0x2000b800>
    148a:	0ab51b63          	bne	a0,a1,1540 <GPIO_Init+0x128>
    148e:	8081a783          	lw	a5,-2040(gp) # 200000a0 <CFGHR_tmpA>
    1492:	45a1                	li	a1,8
    1494:	4e85                	li	t4,1
    1496:	4f3d                	li	t5,15
    1498:	02800f93          	li	t6,40
    149c:	04800293          	li	t0,72
    14a0:	4e41                	li	t3,16
    14a2:	00be9333          	sll	t1,t4,a1
    14a6:	0066f633          	and	a2,a3,t1
    14aa:	02c31263          	bne	t1,a2,14ce <GPIO_Init+0xb6>
    14ae:	00259613          	slli	a2,a1,0x2
    14b2:	1601                	addi	a2,a2,-32
    14b4:	00cf18b3          	sll	a7,t5,a2
    14b8:	fff8c893          	not	a7,a7
    14bc:	00f8f7b3          	and	a5,a7,a5
    14c0:	00c81633          	sll	a2,a6,a2
    14c4:	8fd1                	or	a5,a5,a2
    14c6:	09f71963          	bne	a4,t6,1558 <GPIO_Init+0x140>
    14ca:	00652a23          	sw	t1,20(a0)
    14ce:	0585                	addi	a1,a1,1
    14d0:	fdc599e3          	bne	a1,t3,14a2 <GPIO_Init+0x8a>
    14d4:	40011637          	lui	a2,0x40011
    14d8:	c15c                	sw	a5,4(a0)
    14da:	80060593          	addi	a1,a2,-2048 # 40010800 <_eusrstack+0x2000b800>
    14de:	08b51263          	bne	a0,a1,1562 <GPIO_Init+0x14a>
    14e2:	80f1a423          	sw	a5,-2040(gp) # 200000a0 <CFGHR_tmpA>
    14e6:	67c1                	lui	a5,0x10
    14e8:	04f6e663          	bltu	a3,a5,1534 <GPIO_Init+0x11c>
    14ec:	4d50                	lw	a2,28(a0)
    14ee:	4781                	li	a5,0
    14f0:	4e05                	li	t3,1
    14f2:	4f3d                	li	t5,15
    14f4:	02800f93          	li	t6,40
    14f8:	04800293          	li	t0,72
    14fc:	4ea1                	li	t4,8
    14fe:	01078593          	addi	a1,a5,16 # 10010 <_data_lma+0xd32c>
    1502:	00be15b3          	sll	a1,t3,a1
    1506:	00b6f8b3          	and	a7,a3,a1
    150a:	03159163          	bne	a1,a7,152c <GPIO_Init+0x114>
    150e:	00279893          	slli	a7,a5,0x2
    1512:	011f1333          	sll	t1,t5,a7
    1516:	fff34313          	not	t1,t1
    151a:	00c37633          	and	a2,t1,a2
    151e:	011818b3          	sll	a7,a6,a7
    1522:	00c8e633          	or	a2,a7,a2
    1526:	05f71a63          	bne	a4,t6,157a <GPIO_Init+0x162>
    152a:	c94c                	sw	a1,20(a0)
    152c:	0785                	addi	a5,a5,1
    152e:	fdd798e3          	bne	a5,t4,14fe <GPIO_Init+0xe6>
    1532:	cd50                	sw	a2,28(a0)
    1534:	8082                	ret
    1536:	f2571de3          	bne	a4,t0,1470 <GPIO_Init+0x58>
    153a:	01152823          	sw	a7,16(a0)
    153e:	bf0d                	j	1470 <GPIO_Init+0x58>
    1540:	c0060593          	addi	a1,a2,-1024
    1544:	00b51563          	bne	a0,a1,154e <GPIO_Init+0x136>
    1548:	80c1a783          	lw	a5,-2036(gp) # 200000a4 <CFGHR_tmpB>
    154c:	b799                	j	1492 <GPIO_Init+0x7a>
    154e:	f4c512e3          	bne	a0,a2,1492 <GPIO_Init+0x7a>
    1552:	8101a783          	lw	a5,-2032(gp) # 200000a8 <CFGHR_tmpC>
    1556:	bf35                	j	1492 <GPIO_Init+0x7a>
    1558:	f6571be3          	bne	a4,t0,14ce <GPIO_Init+0xb6>
    155c:	00652823          	sw	t1,16(a0)
    1560:	b7bd                	j	14ce <GPIO_Init+0xb6>
    1562:	c0060593          	addi	a1,a2,-1024
    1566:	00b51563          	bne	a0,a1,1570 <GPIO_Init+0x158>
    156a:	80f1a623          	sw	a5,-2036(gp) # 200000a4 <CFGHR_tmpB>
    156e:	bfa5                	j	14e6 <GPIO_Init+0xce>
    1570:	f6c51be3          	bne	a0,a2,14e6 <GPIO_Init+0xce>
    1574:	80f1a823          	sw	a5,-2032(gp) # 200000a8 <CFGHR_tmpC>
    1578:	b7bd                	j	14e6 <GPIO_Init+0xce>
    157a:	fa5719e3          	bne	a4,t0,152c <GPIO_Init+0x114>
    157e:	00fe15b3          	sll	a1,t3,a5
    1582:	d10c                	sw	a1,32(a0)
    1584:	b765                	j	152c <GPIO_Init+0x114>

00001586 <RCC_GetClocksFreq>:
    1586:	02dc77b7          	lui	a5,0x2dc7
    158a:	c0078793          	addi	a5,a5,-1024 # 2dc6c00 <_data_lma+0x2dc3f1c>
    158e:	c11c                	sw	a5,0(a0)
    1590:	40021637          	lui	a2,0x40021
    1594:	4258                	lw	a4,4(a2)
    1596:	8311                	srli	a4,a4,0x4
    1598:	00f77693          	andi	a3,a4,15
    159c:	20000737          	lui	a4,0x20000
    15a0:	02470713          	addi	a4,a4,36 # 20000024 <APBAHBPrescTable>
    15a4:	9736                	add	a4,a4,a3
    15a6:	2314                	lbu	a3,0(a4)
    15a8:	4250                	lw	a2,4(a2)
    15aa:	0ff6f693          	andi	a3,a3,255
    15ae:	08067613          	andi	a2,a2,128
    15b2:	00d7d733          	srl	a4,a5,a3
    15b6:	e219                	bnez	a2,15bc <RCC_GetClocksFreq+0x36>
    15b8:	02d7d733          	divu	a4,a5,a3
    15bc:	c158                	sw	a4,4(a0)
    15be:	c518                	sw	a4,8(a0)
    15c0:	c558                	sw	a4,12(a0)
    15c2:	8082                	ret

000015c4 <RCC_AHBPeriphClockCmd>:
    15c4:	c599                	beqz	a1,15d2 <RCC_AHBPeriphClockCmd+0xe>
    15c6:	40021737          	lui	a4,0x40021
    15ca:	4b5c                	lw	a5,20(a4)
    15cc:	8d5d                	or	a0,a0,a5
    15ce:	cb48                	sw	a0,20(a4)
    15d0:	8082                	ret
    15d2:	400217b7          	lui	a5,0x40021
    15d6:	4bd8                	lw	a4,20(a5)
    15d8:	fff54513          	not	a0,a0
    15dc:	8d79                	and	a0,a0,a4
    15de:	cbc8                	sw	a0,20(a5)
    15e0:	8082                	ret

000015e2 <RCC_APB2PeriphClockCmd>:
    15e2:	c599                	beqz	a1,15f0 <RCC_APB2PeriphClockCmd+0xe>
    15e4:	40021737          	lui	a4,0x40021
    15e8:	4f1c                	lw	a5,24(a4)
    15ea:	8d5d                	or	a0,a0,a5
    15ec:	cf08                	sw	a0,24(a4)
    15ee:	8082                	ret
    15f0:	400217b7          	lui	a5,0x40021
    15f4:	4f98                	lw	a4,24(a5)
    15f6:	fff54513          	not	a0,a0
    15fa:	8d79                	and	a0,a0,a4
    15fc:	cf88                	sw	a0,24(a5)
    15fe:	8082                	ret

00001600 <USART_Init>:
    1600:	b31fe2ef          	jal	t0,130 <__riscv_save_0>
    1604:	2916                	lhu	a3,16(a0)
    1606:	77f5                	lui	a5,0xffffd
    1608:	17fd                	addi	a5,a5,-1
    160a:	8ff5                	and	a5,a5,a3
    160c:	21f6                	lhu	a3,6(a1)
    160e:	25da                	lhu	a4,12(a1)
    1610:	1101                	addi	sp,sp,-32
    1612:	8fd5                	or	a5,a5,a3
    1614:	a91e                	sh	a5,16(a0)
    1616:	2556                	lhu	a3,12(a0)
    1618:	77fd                	lui	a5,0xfffff
    161a:	9f378793          	addi	a5,a5,-1549 # ffffe9f3 <_eusrstack+0xdfff99f3>
    161e:	8ff5                	and	a5,a5,a3
    1620:	21d6                	lhu	a3,4(a1)
    1622:	842a                	mv	s0,a0
    1624:	c62e                	sw	a1,12(sp)
    1626:	8fd5                	or	a5,a5,a3
    1628:	2596                	lhu	a3,8(a1)
    162a:	8fd5                	or	a5,a5,a3
    162c:	25b6                	lhu	a3,10(a1)
    162e:	8fd5                	or	a5,a5,a3
    1630:	a55e                	sh	a5,12(a0)
    1632:	295e                	lhu	a5,20(a0)
    1634:	07c2                	slli	a5,a5,0x10
    1636:	83c1                	srli	a5,a5,0x10
    1638:	cff7f793          	andi	a5,a5,-769
    163c:	8fd9                	or	a5,a5,a4
    163e:	a95e                	sh	a5,20(a0)
    1640:	0808                	addi	a0,sp,16
    1642:	3791                	jal	1586 <RCC_GetClocksFreq>
    1644:	400147b7          	lui	a5,0x40014
    1648:	80078793          	addi	a5,a5,-2048 # 40013800 <_eusrstack+0x2000e800>
    164c:	45b2                	lw	a1,12(sp)
    164e:	02f41e63          	bne	s0,a5,168a <USART_Init+0x8a>
    1652:	47f2                	lw	a5,28(sp)
    1654:	4765                	li	a4,25
    1656:	02e787b3          	mul	a5,a5,a4
    165a:	4198                	lw	a4,0(a1)
    165c:	06400693          	li	a3,100
    1660:	070a                	slli	a4,a4,0x2
    1662:	02e7d7b3          	divu	a5,a5,a4
    1666:	02d7d733          	divu	a4,a5,a3
    166a:	02d7f7b3          	remu	a5,a5,a3
    166e:	0712                	slli	a4,a4,0x4
    1670:	0792                	slli	a5,a5,0x4
    1672:	03278793          	addi	a5,a5,50
    1676:	02d7d7b3          	divu	a5,a5,a3
    167a:	8bbd                	andi	a5,a5,15
    167c:	8fd9                	or	a5,a5,a4
    167e:	07c2                	slli	a5,a5,0x10
    1680:	83c1                	srli	a5,a5,0x10
    1682:	a41e                	sh	a5,8(s0)
    1684:	6105                	addi	sp,sp,32
    1686:	acffe06f          	j	154 <__riscv_restore_0>
    168a:	47e2                	lw	a5,24(sp)
    168c:	b7e1                	j	1654 <USART_Init+0x54>

0000168e <USART_Cmd>:
    168e:	c591                	beqz	a1,169a <USART_Cmd+0xc>
    1690:	255e                	lhu	a5,12(a0)
    1692:	6709                	lui	a4,0x2
    1694:	8fd9                	or	a5,a5,a4
    1696:	a55e                	sh	a5,12(a0)
    1698:	8082                	ret
    169a:	255a                	lhu	a4,12(a0)
    169c:	77f9                	lui	a5,0xffffe
    169e:	17fd                	addi	a5,a5,-1
    16a0:	8ff9                	and	a5,a5,a4
    16a2:	bfd5                	j	1696 <USART_Cmd+0x8>

000016a4 <USART_SendData>:
    16a4:	1ff5f593          	andi	a1,a1,511
    16a8:	a14e                	sh	a1,4(a0)
    16aa:	8082                	ret

000016ac <USART_GetFlagStatus>:
    16ac:	210a                	lhu	a0,0(a0)
    16ae:	8d6d                	and	a0,a0,a1
    16b0:	00a03533          	snez	a0,a0
    16b4:	8082                	ret

000016b6 <Delay_Init>:
    16b6:	200007b7          	lui	a5,0x20000
    16ba:	09c7a783          	lw	a5,156(a5) # 2000009c <SystemCoreClock>
    16be:	007a1737          	lui	a4,0x7a1
    16c2:	20070713          	addi	a4,a4,512 # 7a1200 <_data_lma+0x79e51c>
    16c6:	02e7d7b3          	divu	a5,a5,a4
    16ca:	0ff7f793          	andi	a5,a5,255
    16ce:	86f18b23          	sb	a5,-1930(gp) # 2000010e <p_us>
    16d2:	3e800713          	li	a4,1000
    16d6:	02e787b3          	mul	a5,a5,a4
    16da:	86f19a23          	sh	a5,-1932(gp) # 2000010c <p_ms>
    16de:	8082                	ret

000016e0 <Delay_Us>:
    16e0:	e000f7b7          	lui	a5,0xe000f
    16e4:	43d8                	lw	a4,4(a5)
    16e6:	4681                	li	a3,0
    16e8:	9b79                	andi	a4,a4,-2
    16ea:	c3d8                	sw	a4,4(a5)
    16ec:	8761c703          	lbu	a4,-1930(gp) # 2000010e <p_us>
    16f0:	02a70633          	mul	a2,a4,a0
    16f4:	cb90                	sw	a2,16(a5)
    16f6:	cbd4                	sw	a3,20(a5)
    16f8:	4398                	lw	a4,0(a5)
    16fa:	01076713          	ori	a4,a4,16
    16fe:	c398                	sw	a4,0(a5)
    1700:	4398                	lw	a4,0(a5)
    1702:	02176713          	ori	a4,a4,33
    1706:	c398                	sw	a4,0(a5)
    1708:	43d8                	lw	a4,4(a5)
    170a:	8b05                	andi	a4,a4,1
    170c:	df75                	beqz	a4,1708 <Delay_Us+0x28>
    170e:	4398                	lw	a4,0(a5)
    1710:	9b79                	andi	a4,a4,-2
    1712:	c398                	sw	a4,0(a5)
    1714:	8082                	ret

00001716 <Delay_Ms>:
    1716:	e000f7b7          	lui	a5,0xe000f
    171a:	43d8                	lw	a4,4(a5)
    171c:	4681                	li	a3,0
    171e:	9b79                	andi	a4,a4,-2
    1720:	c3d8                	sw	a4,4(a5)
    1722:	8741d703          	lhu	a4,-1932(gp) # 2000010c <p_ms>
    1726:	02a70633          	mul	a2,a4,a0
    172a:	cb90                	sw	a2,16(a5)
    172c:	cbd4                	sw	a3,20(a5)
    172e:	4398                	lw	a4,0(a5)
    1730:	01076713          	ori	a4,a4,16
    1734:	c398                	sw	a4,0(a5)
    1736:	4398                	lw	a4,0(a5)
    1738:	02176713          	ori	a4,a4,33
    173c:	c398                	sw	a4,0(a5)
    173e:	43d8                	lw	a4,4(a5)
    1740:	8b05                	andi	a4,a4,1
    1742:	df75                	beqz	a4,173e <Delay_Ms+0x28>
    1744:	4398                	lw	a4,0(a5)
    1746:	9b79                	andi	a4,a4,-2
    1748:	c398                	sw	a4,0(a5)
    174a:	8082                	ret

0000174c <USART_Printf_Init>:
    174c:	9e5fe2ef          	jal	t0,130 <__riscv_save_0>
    1750:	842a                	mv	s0,a0
    1752:	6511                	lui	a0,0x4
    1754:	1101                	addi	sp,sp,-32
    1756:	4585                	li	a1,1
    1758:	0521                	addi	a0,a0,8
    175a:	3561                	jal	15e2 <RCC_APB2PeriphClockCmd>
    175c:	40000793          	li	a5,1024
    1760:	c23e                	sw	a5,4(sp)
    1762:	40011537          	lui	a0,0x40011
    1766:	4785                	li	a5,1
    1768:	c43e                	sw	a5,8(sp)
    176a:	004c                	addi	a1,sp,4
    176c:	47e1                	li	a5,24
    176e:	c0050513          	addi	a0,a0,-1024 # 40010c00 <_eusrstack+0x2000bc00>
    1772:	c63e                	sw	a5,12(sp)
    1774:	3155                	jal	1418 <GPIO_Init>
    1776:	c822                	sw	s0,16(sp)
    1778:	40014437          	lui	s0,0x40014
    177c:	000807b7          	lui	a5,0x80
    1780:	080c                	addi	a1,sp,16
    1782:	80040513          	addi	a0,s0,-2048 # 40013800 <_eusrstack+0x2000e800>
    1786:	cc3e                	sw	a5,24(sp)
    1788:	ca02                	sw	zero,20(sp)
    178a:	00011e23          	sh	zero,28(sp)
    178e:	3d8d                	jal	1600 <USART_Init>
    1790:	4585                	li	a1,1
    1792:	80040513          	addi	a0,s0,-2048
    1796:	3de5                	jal	168e <USART_Cmd>
    1798:	6105                	addi	sp,sp,32
    179a:	9bbfe06f          	j	154 <__riscv_restore_0>

0000179e <_write>:
    179e:	979fe2ef          	jal	t0,116 <__riscv_save_4>
    17a2:	400144b7          	lui	s1,0x40014
    17a6:	89ae                	mv	s3,a1
    17a8:	8932                	mv	s2,a2
    17aa:	4401                	li	s0,0
    17ac:	80048493          	addi	s1,s1,-2048 # 40013800 <_eusrstack+0x2000e800>
    17b0:	01244563          	blt	s0,s2,17ba <_write+0x1c>
    17b4:	854a                	mv	a0,s2
    17b6:	995fe06f          	j	14a <__riscv_restore_4>
    17ba:	04000593          	li	a1,64
    17be:	8526                	mv	a0,s1
    17c0:	35f5                	jal	16ac <USART_GetFlagStatus>
    17c2:	dd65                	beqz	a0,17ba <_write+0x1c>
    17c4:	008987b3          	add	a5,s3,s0
    17c8:	00078583          	lb	a1,0(a5) # 80000 <_data_lma+0x7d31c>
    17cc:	8526                	mv	a0,s1
    17ce:	0405                	addi	s0,s0,1
    17d0:	05c2                	slli	a1,a1,0x10
    17d2:	81c1                	srli	a1,a1,0x10
    17d4:	3dc1                	jal	16a4 <USART_SendData>
    17d6:	bfe9                	j	17b0 <_write+0x12>

000017d8 <_sbrk>:
    17d8:	81418713          	addi	a4,gp,-2028 # 200000ac <curbrk.4333>
    17dc:	431c                	lw	a5,0(a4)
    17de:	b6418693          	addi	a3,gp,-1180 # 200003fc <_ebss>
    17e2:	953e                	add	a0,a0,a5
    17e4:	00d56b63          	bltu	a0,a3,17fa <_sbrk+0x22>
    17e8:	200056b7          	lui	a3,0x20005
    17ec:	80068693          	addi	a3,a3,-2048 # 20004800 <_heap_end>
    17f0:	00a6e563          	bltu	a3,a0,17fa <_sbrk+0x22>
    17f4:	c308                	sw	a0,0(a4)
    17f6:	853e                	mv	a0,a5
    17f8:	8082                	ret
    17fa:	57fd                	li	a5,-1
    17fc:	bfed                	j	17f6 <_sbrk+0x1e>

000017fe <memcpy>:
    17fe:	00a5c7b3          	xor	a5,a1,a0
    1802:	8b8d                	andi	a5,a5,3
    1804:	00c50733          	add	a4,a0,a2
    1808:	e781                	bnez	a5,1810 <memcpy+0x12>
    180a:	478d                	li	a5,3
    180c:	00c7ed63          	bltu	a5,a2,1826 <memcpy+0x28>
    1810:	87aa                	mv	a5,a0
    1812:	08e57e63          	bgeu	a0,a4,18ae <memcpy+0xb0>
    1816:	2194                	lbu	a3,0(a1)
    1818:	0785                	addi	a5,a5,1
    181a:	0585                	addi	a1,a1,1
    181c:	fed78fa3          	sb	a3,-1(a5)
    1820:	fee7ebe3          	bltu	a5,a4,1816 <memcpy+0x18>
    1824:	8082                	ret
    1826:	00357693          	andi	a3,a0,3
    182a:	87aa                	mv	a5,a0
    182c:	ca89                	beqz	a3,183e <memcpy+0x40>
    182e:	2194                	lbu	a3,0(a1)
    1830:	0785                	addi	a5,a5,1
    1832:	0585                	addi	a1,a1,1
    1834:	fed78fa3          	sb	a3,-1(a5)
    1838:	0037f693          	andi	a3,a5,3
    183c:	bfc5                	j	182c <memcpy+0x2e>
    183e:	ffc77693          	andi	a3,a4,-4
    1842:	fe068613          	addi	a2,a3,-32
    1846:	06c7f063          	bgeu	a5,a2,18a6 <memcpy+0xa8>
    184a:	0005a383          	lw	t2,0(a1)
    184e:	0045a283          	lw	t0,4(a1)
    1852:	0085af83          	lw	t6,8(a1)
    1856:	00c5af03          	lw	t5,12(a1)
    185a:	0105ae83          	lw	t4,16(a1)
    185e:	0145ae03          	lw	t3,20(a1)
    1862:	0185a303          	lw	t1,24(a1)
    1866:	01c5a883          	lw	a7,28(a1)
    186a:	02458593          	addi	a1,a1,36
    186e:	0077a023          	sw	t2,0(a5)
    1872:	ffc5a803          	lw	a6,-4(a1)
    1876:	0057a223          	sw	t0,4(a5)
    187a:	01f7a423          	sw	t6,8(a5)
    187e:	01e7a623          	sw	t5,12(a5)
    1882:	01d7a823          	sw	t4,16(a5)
    1886:	01c7aa23          	sw	t3,20(a5)
    188a:	0067ac23          	sw	t1,24(a5)
    188e:	0117ae23          	sw	a7,28(a5)
    1892:	02478793          	addi	a5,a5,36
    1896:	ff07ae23          	sw	a6,-4(a5)
    189a:	b775                	j	1846 <memcpy+0x48>
    189c:	4190                	lw	a2,0(a1)
    189e:	0791                	addi	a5,a5,4
    18a0:	0591                	addi	a1,a1,4
    18a2:	fec7ae23          	sw	a2,-4(a5)
    18a6:	fed7ebe3          	bltu	a5,a3,189c <memcpy+0x9e>
    18aa:	f6e7e6e3          	bltu	a5,a4,1816 <memcpy+0x18>
    18ae:	8082                	ret

000018b0 <iprintf>:
    18b0:	7139                	addi	sp,sp,-64
    18b2:	da3e                	sw	a5,52(sp)
    18b4:	d22e                	sw	a1,36(sp)
    18b6:	d432                	sw	a2,40(sp)
    18b8:	d636                	sw	a3,44(sp)
    18ba:	d83a                	sw	a4,48(sp)
    18bc:	dc42                	sw	a6,56(sp)
    18be:	de46                	sw	a7,60(sp)
    18c0:	81818793          	addi	a5,gp,-2024 # 200000b0 <_impure_ptr>
    18c4:	cc22                	sw	s0,24(sp)
    18c6:	4380                	lw	s0,0(a5)
    18c8:	ca26                	sw	s1,20(sp)
    18ca:	ce06                	sw	ra,28(sp)
    18cc:	84aa                	mv	s1,a0
    18ce:	c409                	beqz	s0,18d8 <iprintf+0x28>
    18d0:	4c1c                	lw	a5,24(s0)
    18d2:	e399                	bnez	a5,18d8 <iprintf+0x28>
    18d4:	8522                	mv	a0,s0
    18d6:	29ed                	jal	1dd0 <__sinit>
    18d8:	440c                	lw	a1,8(s0)
    18da:	1054                	addi	a3,sp,36
    18dc:	8626                	mv	a2,s1
    18de:	8522                	mv	a0,s0
    18e0:	c636                	sw	a3,12(sp)
    18e2:	127000ef          	jal	ra,2208 <_vfiprintf_r>
    18e6:	40f2                	lw	ra,28(sp)
    18e8:	4462                	lw	s0,24(sp)
    18ea:	44d2                	lw	s1,20(sp)
    18ec:	6121                	addi	sp,sp,64
    18ee:	8082                	ret

000018f0 <_puts_r>:
    18f0:	1101                	addi	sp,sp,-32
    18f2:	ca26                	sw	s1,20(sp)
    18f4:	c84a                	sw	s2,16(sp)
    18f6:	ce06                	sw	ra,28(sp)
    18f8:	cc22                	sw	s0,24(sp)
    18fa:	c64e                	sw	s3,12(sp)
    18fc:	c452                	sw	s4,8(sp)
    18fe:	84aa                	mv	s1,a0
    1900:	892e                	mv	s2,a1
    1902:	c501                	beqz	a0,190a <_puts_r+0x1a>
    1904:	4d1c                	lw	a5,24(a0)
    1906:	e391                	bnez	a5,190a <_puts_r+0x1a>
    1908:	21e1                	jal	1dd0 <__sinit>
    190a:	4c9c                	lw	a5,24(s1)
    190c:	4480                	lw	s0,8(s1)
    190e:	e399                	bnez	a5,1914 <_puts_r+0x24>
    1910:	8526                	mv	a0,s1
    1912:	297d                	jal	1dd0 <__sinit>
    1914:	00001797          	auipc	a5,0x1
    1918:	35478793          	addi	a5,a5,852 # 2c68 <__sf_fake_stdin>
    191c:	02f41b63          	bne	s0,a5,1952 <_puts_r+0x62>
    1920:	40c0                	lw	s0,4(s1)
    1922:	245e                	lhu	a5,12(s0)
    1924:	8ba1                	andi	a5,a5,8
    1926:	c7b1                	beqz	a5,1972 <_puts_r+0x82>
    1928:	481c                	lw	a5,16(s0)
    192a:	c7a1                	beqz	a5,1972 <_puts_r+0x82>
    192c:	59fd                	li	s3,-1
    192e:	4a29                	li	s4,10
    1930:	441c                	lw	a5,8(s0)
    1932:	00094583          	lbu	a1,0(s2)
    1936:	17fd                	addi	a5,a5,-1
    1938:	e9b1                	bnez	a1,198c <_puts_r+0x9c>
    193a:	c41c                	sw	a5,8(s0)
    193c:	0607dd63          	bgez	a5,19b6 <_puts_r+0xc6>
    1940:	8622                	mv	a2,s0
    1942:	45a9                	li	a1,10
    1944:	8526                	mv	a0,s1
    1946:	2061                	jal	19ce <__swbuf_r>
    1948:	57fd                	li	a5,-1
    194a:	02f50863          	beq	a0,a5,197a <_puts_r+0x8a>
    194e:	4529                	li	a0,10
    1950:	a035                	j	197c <_puts_r+0x8c>
    1952:	00001797          	auipc	a5,0x1
    1956:	33678793          	addi	a5,a5,822 # 2c88 <__sf_fake_stdout>
    195a:	00f41463          	bne	s0,a5,1962 <_puts_r+0x72>
    195e:	4480                	lw	s0,8(s1)
    1960:	b7c9                	j	1922 <_puts_r+0x32>
    1962:	00001797          	auipc	a5,0x1
    1966:	2e678793          	addi	a5,a5,742 # 2c48 <__sf_fake_stderr>
    196a:	faf41ce3          	bne	s0,a5,1922 <_puts_r+0x32>
    196e:	44c0                	lw	s0,12(s1)
    1970:	bf4d                	j	1922 <_puts_r+0x32>
    1972:	85a2                	mv	a1,s0
    1974:	8526                	mv	a0,s1
    1976:	2a11                	jal	1a8a <__swsetup_r>
    1978:	d955                	beqz	a0,192c <_puts_r+0x3c>
    197a:	557d                	li	a0,-1
    197c:	40f2                	lw	ra,28(sp)
    197e:	4462                	lw	s0,24(sp)
    1980:	44d2                	lw	s1,20(sp)
    1982:	4942                	lw	s2,16(sp)
    1984:	49b2                	lw	s3,12(sp)
    1986:	4a22                	lw	s4,8(sp)
    1988:	6105                	addi	sp,sp,32
    198a:	8082                	ret
    198c:	c41c                	sw	a5,8(s0)
    198e:	0905                	addi	s2,s2,1
    1990:	0007d763          	bgez	a5,199e <_puts_r+0xae>
    1994:	4c18                	lw	a4,24(s0)
    1996:	00e7ca63          	blt	a5,a4,19aa <_puts_r+0xba>
    199a:	01458863          	beq	a1,s4,19aa <_puts_r+0xba>
    199e:	401c                	lw	a5,0(s0)
    19a0:	00178713          	addi	a4,a5,1
    19a4:	c018                	sw	a4,0(s0)
    19a6:	a38c                	sb	a1,0(a5)
    19a8:	b761                	j	1930 <_puts_r+0x40>
    19aa:	8622                	mv	a2,s0
    19ac:	8526                	mv	a0,s1
    19ae:	2005                	jal	19ce <__swbuf_r>
    19b0:	f93510e3          	bne	a0,s3,1930 <_puts_r+0x40>
    19b4:	b7d9                	j	197a <_puts_r+0x8a>
    19b6:	401c                	lw	a5,0(s0)
    19b8:	00178713          	addi	a4,a5,1
    19bc:	c018                	sw	a4,0(s0)
    19be:	4729                	li	a4,10
    19c0:	a398                	sb	a4,0(a5)
    19c2:	b771                	j	194e <_puts_r+0x5e>

000019c4 <puts>:
    19c4:	81818793          	addi	a5,gp,-2024 # 200000b0 <_impure_ptr>
    19c8:	85aa                	mv	a1,a0
    19ca:	4388                	lw	a0,0(a5)
    19cc:	b715                	j	18f0 <_puts_r>

000019ce <__swbuf_r>:
    19ce:	1101                	addi	sp,sp,-32
    19d0:	cc22                	sw	s0,24(sp)
    19d2:	ca26                	sw	s1,20(sp)
    19d4:	c84a                	sw	s2,16(sp)
    19d6:	ce06                	sw	ra,28(sp)
    19d8:	c64e                	sw	s3,12(sp)
    19da:	84aa                	mv	s1,a0
    19dc:	892e                	mv	s2,a1
    19de:	8432                	mv	s0,a2
    19e0:	c501                	beqz	a0,19e8 <__swbuf_r+0x1a>
    19e2:	4d1c                	lw	a5,24(a0)
    19e4:	e391                	bnez	a5,19e8 <__swbuf_r+0x1a>
    19e6:	26ed                	jal	1dd0 <__sinit>
    19e8:	00001797          	auipc	a5,0x1
    19ec:	28078793          	addi	a5,a5,640 # 2c68 <__sf_fake_stdin>
    19f0:	06f41763          	bne	s0,a5,1a5e <__swbuf_r+0x90>
    19f4:	40c0                	lw	s0,4(s1)
    19f6:	4c1c                	lw	a5,24(s0)
    19f8:	c41c                	sw	a5,8(s0)
    19fa:	245e                	lhu	a5,12(s0)
    19fc:	8ba1                	andi	a5,a5,8
    19fe:	c3c1                	beqz	a5,1a7e <__swbuf_r+0xb0>
    1a00:	481c                	lw	a5,16(s0)
    1a02:	cfb5                	beqz	a5,1a7e <__swbuf_r+0xb0>
    1a04:	481c                	lw	a5,16(s0)
    1a06:	4008                	lw	a0,0(s0)
    1a08:	0ff97993          	andi	s3,s2,255
    1a0c:	0ff97913          	andi	s2,s2,255
    1a10:	8d1d                	sub	a0,a0,a5
    1a12:	485c                	lw	a5,20(s0)
    1a14:	00f54663          	blt	a0,a5,1a20 <__swbuf_r+0x52>
    1a18:	85a2                	mv	a1,s0
    1a1a:	8526                	mv	a0,s1
    1a1c:	2c69                	jal	1cb6 <_fflush_r>
    1a1e:	e525                	bnez	a0,1a86 <__swbuf_r+0xb8>
    1a20:	441c                	lw	a5,8(s0)
    1a22:	0505                	addi	a0,a0,1
    1a24:	17fd                	addi	a5,a5,-1
    1a26:	c41c                	sw	a5,8(s0)
    1a28:	401c                	lw	a5,0(s0)
    1a2a:	00178713          	addi	a4,a5,1
    1a2e:	c018                	sw	a4,0(s0)
    1a30:	01378023          	sb	s3,0(a5)
    1a34:	485c                	lw	a5,20(s0)
    1a36:	00a78863          	beq	a5,a0,1a46 <__swbuf_r+0x78>
    1a3a:	245e                	lhu	a5,12(s0)
    1a3c:	8b85                	andi	a5,a5,1
    1a3e:	cb81                	beqz	a5,1a4e <__swbuf_r+0x80>
    1a40:	47a9                	li	a5,10
    1a42:	00f91663          	bne	s2,a5,1a4e <__swbuf_r+0x80>
    1a46:	85a2                	mv	a1,s0
    1a48:	8526                	mv	a0,s1
    1a4a:	24b5                	jal	1cb6 <_fflush_r>
    1a4c:	ed0d                	bnez	a0,1a86 <__swbuf_r+0xb8>
    1a4e:	40f2                	lw	ra,28(sp)
    1a50:	4462                	lw	s0,24(sp)
    1a52:	854a                	mv	a0,s2
    1a54:	44d2                	lw	s1,20(sp)
    1a56:	4942                	lw	s2,16(sp)
    1a58:	49b2                	lw	s3,12(sp)
    1a5a:	6105                	addi	sp,sp,32
    1a5c:	8082                	ret
    1a5e:	00001797          	auipc	a5,0x1
    1a62:	22a78793          	addi	a5,a5,554 # 2c88 <__sf_fake_stdout>
    1a66:	00f41463          	bne	s0,a5,1a6e <__swbuf_r+0xa0>
    1a6a:	4480                	lw	s0,8(s1)
    1a6c:	b769                	j	19f6 <__swbuf_r+0x28>
    1a6e:	00001797          	auipc	a5,0x1
    1a72:	1da78793          	addi	a5,a5,474 # 2c48 <__sf_fake_stderr>
    1a76:	f8f410e3          	bne	s0,a5,19f6 <__swbuf_r+0x28>
    1a7a:	44c0                	lw	s0,12(s1)
    1a7c:	bfad                	j	19f6 <__swbuf_r+0x28>
    1a7e:	85a2                	mv	a1,s0
    1a80:	8526                	mv	a0,s1
    1a82:	2021                	jal	1a8a <__swsetup_r>
    1a84:	d141                	beqz	a0,1a04 <__swbuf_r+0x36>
    1a86:	597d                	li	s2,-1
    1a88:	b7d9                	j	1a4e <__swbuf_r+0x80>

00001a8a <__swsetup_r>:
    1a8a:	1141                	addi	sp,sp,-16
    1a8c:	81818793          	addi	a5,gp,-2024 # 200000b0 <_impure_ptr>
    1a90:	c226                	sw	s1,4(sp)
    1a92:	4384                	lw	s1,0(a5)
    1a94:	c422                	sw	s0,8(sp)
    1a96:	c04a                	sw	s2,0(sp)
    1a98:	c606                	sw	ra,12(sp)
    1a9a:	892a                	mv	s2,a0
    1a9c:	842e                	mv	s0,a1
    1a9e:	c489                	beqz	s1,1aa8 <__swsetup_r+0x1e>
    1aa0:	4c9c                	lw	a5,24(s1)
    1aa2:	e399                	bnez	a5,1aa8 <__swsetup_r+0x1e>
    1aa4:	8526                	mv	a0,s1
    1aa6:	262d                	jal	1dd0 <__sinit>
    1aa8:	00001797          	auipc	a5,0x1
    1aac:	1c078793          	addi	a5,a5,448 # 2c68 <__sf_fake_stdin>
    1ab0:	02f41b63          	bne	s0,a5,1ae6 <__swsetup_r+0x5c>
    1ab4:	40c0                	lw	s0,4(s1)
    1ab6:	00c41703          	lh	a4,12(s0)
    1aba:	01071793          	slli	a5,a4,0x10
    1abe:	83c1                	srli	a5,a5,0x10
    1ac0:	0087f693          	andi	a3,a5,8
    1ac4:	eaad                	bnez	a3,1b36 <__swsetup_r+0xac>
    1ac6:	0107f693          	andi	a3,a5,16
    1aca:	ee95                	bnez	a3,1b06 <__swsetup_r+0x7c>
    1acc:	47a5                	li	a5,9
    1ace:	00f92023          	sw	a5,0(s2)
    1ad2:	04076713          	ori	a4,a4,64
    1ad6:	a45a                	sh	a4,12(s0)
    1ad8:	557d                	li	a0,-1
    1ada:	40b2                	lw	ra,12(sp)
    1adc:	4422                	lw	s0,8(sp)
    1ade:	4492                	lw	s1,4(sp)
    1ae0:	4902                	lw	s2,0(sp)
    1ae2:	0141                	addi	sp,sp,16
    1ae4:	8082                	ret
    1ae6:	00001797          	auipc	a5,0x1
    1aea:	1a278793          	addi	a5,a5,418 # 2c88 <__sf_fake_stdout>
    1aee:	00f41463          	bne	s0,a5,1af6 <__swsetup_r+0x6c>
    1af2:	4480                	lw	s0,8(s1)
    1af4:	b7c9                	j	1ab6 <__swsetup_r+0x2c>
    1af6:	00001797          	auipc	a5,0x1
    1afa:	15278793          	addi	a5,a5,338 # 2c48 <__sf_fake_stderr>
    1afe:	faf41ce3          	bne	s0,a5,1ab6 <__swsetup_r+0x2c>
    1b02:	44c0                	lw	s0,12(s1)
    1b04:	bf4d                	j	1ab6 <__swsetup_r+0x2c>
    1b06:	8b91                	andi	a5,a5,4
    1b08:	c39d                	beqz	a5,1b2e <__swsetup_r+0xa4>
    1b0a:	584c                	lw	a1,52(s0)
    1b0c:	c989                	beqz	a1,1b1e <__swsetup_r+0x94>
    1b0e:	04440793          	addi	a5,s0,68
    1b12:	00f58463          	beq	a1,a5,1b1a <__swsetup_r+0x90>
    1b16:	854a                	mv	a0,s2
    1b18:	2331                	jal	2024 <_free_r>
    1b1a:	02042a23          	sw	zero,52(s0)
    1b1e:	245e                	lhu	a5,12(s0)
    1b20:	00042223          	sw	zero,4(s0)
    1b24:	fdb7f793          	andi	a5,a5,-37
    1b28:	a45e                	sh	a5,12(s0)
    1b2a:	481c                	lw	a5,16(s0)
    1b2c:	c01c                	sw	a5,0(s0)
    1b2e:	245e                	lhu	a5,12(s0)
    1b30:	0087e793          	ori	a5,a5,8
    1b34:	a45e                	sh	a5,12(s0)
    1b36:	481c                	lw	a5,16(s0)
    1b38:	eb99                	bnez	a5,1b4e <__swsetup_r+0xc4>
    1b3a:	245e                	lhu	a5,12(s0)
    1b3c:	20000713          	li	a4,512
    1b40:	2807f793          	andi	a5,a5,640
    1b44:	00e78563          	beq	a5,a4,1b4e <__swsetup_r+0xc4>
    1b48:	85a2                	mv	a1,s0
    1b4a:	854a                	mv	a0,s2
    1b4c:	21a1                	jal	1f94 <__smakebuf_r>
    1b4e:	245e                	lhu	a5,12(s0)
    1b50:	0017f713          	andi	a4,a5,1
    1b54:	c31d                	beqz	a4,1b7a <__swsetup_r+0xf0>
    1b56:	485c                	lw	a5,20(s0)
    1b58:	00042423          	sw	zero,8(s0)
    1b5c:	40f007b3          	neg	a5,a5
    1b60:	cc1c                	sw	a5,24(s0)
    1b62:	481c                	lw	a5,16(s0)
    1b64:	4501                	li	a0,0
    1b66:	fbb5                	bnez	a5,1ada <__swsetup_r+0x50>
    1b68:	00c41783          	lh	a5,12(s0)
    1b6c:	0807f713          	andi	a4,a5,128
    1b70:	d72d                	beqz	a4,1ada <__swsetup_r+0x50>
    1b72:	0407e793          	ori	a5,a5,64
    1b76:	a45e                	sh	a5,12(s0)
    1b78:	b785                	j	1ad8 <__swsetup_r+0x4e>
    1b7a:	8b89                	andi	a5,a5,2
    1b7c:	4701                	li	a4,0
    1b7e:	e391                	bnez	a5,1b82 <__swsetup_r+0xf8>
    1b80:	4858                	lw	a4,20(s0)
    1b82:	c418                	sw	a4,8(s0)
    1b84:	bff9                	j	1b62 <__swsetup_r+0xd8>

00001b86 <__sflush_r>:
    1b86:	25de                	lhu	a5,12(a1)
    1b88:	1101                	addi	sp,sp,-32
    1b8a:	cc22                	sw	s0,24(sp)
    1b8c:	ca26                	sw	s1,20(sp)
    1b8e:	ce06                	sw	ra,28(sp)
    1b90:	c84a                	sw	s2,16(sp)
    1b92:	c64e                	sw	s3,12(sp)
    1b94:	0087f713          	andi	a4,a5,8
    1b98:	84aa                	mv	s1,a0
    1b9a:	842e                	mv	s0,a1
    1b9c:	eb79                	bnez	a4,1c72 <__sflush_r+0xec>
    1b9e:	41d8                	lw	a4,4(a1)
    1ba0:	00e04d63          	bgtz	a4,1bba <__sflush_r+0x34>
    1ba4:	41b8                	lw	a4,64(a1)
    1ba6:	00e04a63          	bgtz	a4,1bba <__sflush_r+0x34>
    1baa:	4501                	li	a0,0
    1bac:	40f2                	lw	ra,28(sp)
    1bae:	4462                	lw	s0,24(sp)
    1bb0:	44d2                	lw	s1,20(sp)
    1bb2:	4942                	lw	s2,16(sp)
    1bb4:	49b2                	lw	s3,12(sp)
    1bb6:	6105                	addi	sp,sp,32
    1bb8:	8082                	ret
    1bba:	5458                	lw	a4,44(s0)
    1bbc:	d77d                	beqz	a4,1baa <__sflush_r+0x24>
    1bbe:	0004a903          	lw	s2,0(s1)
    1bc2:	01379693          	slli	a3,a5,0x13
    1bc6:	0004a023          	sw	zero,0(s1)
    1bca:	0606db63          	bgez	a3,1c40 <__sflush_r+0xba>
    1bce:	4870                	lw	a2,84(s0)
    1bd0:	245e                	lhu	a5,12(s0)
    1bd2:	8b91                	andi	a5,a5,4
    1bd4:	c799                	beqz	a5,1be2 <__sflush_r+0x5c>
    1bd6:	405c                	lw	a5,4(s0)
    1bd8:	8e1d                	sub	a2,a2,a5
    1bda:	585c                	lw	a5,52(s0)
    1bdc:	c399                	beqz	a5,1be2 <__sflush_r+0x5c>
    1bde:	403c                	lw	a5,64(s0)
    1be0:	8e1d                	sub	a2,a2,a5
    1be2:	545c                	lw	a5,44(s0)
    1be4:	500c                	lw	a1,32(s0)
    1be6:	4681                	li	a3,0
    1be8:	8526                	mv	a0,s1
    1bea:	9782                	jalr	a5
    1bec:	57fd                	li	a5,-1
    1bee:	245a                	lhu	a4,12(s0)
    1bf0:	00f51d63          	bne	a0,a5,1c0a <__sflush_r+0x84>
    1bf4:	4094                	lw	a3,0(s1)
    1bf6:	47f5                	li	a5,29
    1bf8:	06d7e863          	bltu	a5,a3,1c68 <__sflush_r+0xe2>
    1bfc:	204007b7          	lui	a5,0x20400
    1c00:	0785                	addi	a5,a5,1
    1c02:	00d7d7b3          	srl	a5,a5,a3
    1c06:	8b85                	andi	a5,a5,1
    1c08:	c3a5                	beqz	a5,1c68 <__sflush_r+0xe2>
    1c0a:	481c                	lw	a5,16(s0)
    1c0c:	00042223          	sw	zero,4(s0)
    1c10:	c01c                	sw	a5,0(s0)
    1c12:	01371793          	slli	a5,a4,0x13
    1c16:	0007d863          	bgez	a5,1c26 <__sflush_r+0xa0>
    1c1a:	57fd                	li	a5,-1
    1c1c:	00f51463          	bne	a0,a5,1c24 <__sflush_r+0x9e>
    1c20:	409c                	lw	a5,0(s1)
    1c22:	e391                	bnez	a5,1c26 <__sflush_r+0xa0>
    1c24:	c868                	sw	a0,84(s0)
    1c26:	584c                	lw	a1,52(s0)
    1c28:	0124a023          	sw	s2,0(s1)
    1c2c:	ddbd                	beqz	a1,1baa <__sflush_r+0x24>
    1c2e:	04440793          	addi	a5,s0,68
    1c32:	00f58463          	beq	a1,a5,1c3a <__sflush_r+0xb4>
    1c36:	8526                	mv	a0,s1
    1c38:	26f5                	jal	2024 <_free_r>
    1c3a:	02042a23          	sw	zero,52(s0)
    1c3e:	b7b5                	j	1baa <__sflush_r+0x24>
    1c40:	500c                	lw	a1,32(s0)
    1c42:	4601                	li	a2,0
    1c44:	4685                	li	a3,1
    1c46:	8526                	mv	a0,s1
    1c48:	9702                	jalr	a4
    1c4a:	57fd                	li	a5,-1
    1c4c:	862a                	mv	a2,a0
    1c4e:	f8f511e3          	bne	a0,a5,1bd0 <__sflush_r+0x4a>
    1c52:	409c                	lw	a5,0(s1)
    1c54:	dfb5                	beqz	a5,1bd0 <__sflush_r+0x4a>
    1c56:	4775                	li	a4,29
    1c58:	00e78563          	beq	a5,a4,1c62 <__sflush_r+0xdc>
    1c5c:	4759                	li	a4,22
    1c5e:	04e79363          	bne	a5,a4,1ca4 <__sflush_r+0x11e>
    1c62:	0124a023          	sw	s2,0(s1)
    1c66:	b791                	j	1baa <__sflush_r+0x24>
    1c68:	04076713          	ori	a4,a4,64
    1c6c:	a45a                	sh	a4,12(s0)
    1c6e:	557d                	li	a0,-1
    1c70:	bf35                	j	1bac <__sflush_r+0x26>
    1c72:	0105a983          	lw	s3,16(a1)
    1c76:	f2098ae3          	beqz	s3,1baa <__sflush_r+0x24>
    1c7a:	0005a903          	lw	s2,0(a1)
    1c7e:	8b8d                	andi	a5,a5,3
    1c80:	0135a023          	sw	s3,0(a1)
    1c84:	41390933          	sub	s2,s2,s3
    1c88:	4701                	li	a4,0
    1c8a:	e391                	bnez	a5,1c8e <__sflush_r+0x108>
    1c8c:	49d8                	lw	a4,20(a1)
    1c8e:	c418                	sw	a4,8(s0)
    1c90:	f1205de3          	blez	s2,1baa <__sflush_r+0x24>
    1c94:	541c                	lw	a5,40(s0)
    1c96:	500c                	lw	a1,32(s0)
    1c98:	86ca                	mv	a3,s2
    1c9a:	864e                	mv	a2,s3
    1c9c:	8526                	mv	a0,s1
    1c9e:	9782                	jalr	a5
    1ca0:	00a04763          	bgtz	a0,1cae <__sflush_r+0x128>
    1ca4:	245e                	lhu	a5,12(s0)
    1ca6:	0407e793          	ori	a5,a5,64
    1caa:	a45e                	sh	a5,12(s0)
    1cac:	b7c9                	j	1c6e <__sflush_r+0xe8>
    1cae:	99aa                	add	s3,s3,a0
    1cb0:	40a90933          	sub	s2,s2,a0
    1cb4:	bff1                	j	1c90 <__sflush_r+0x10a>

00001cb6 <_fflush_r>:
    1cb6:	499c                	lw	a5,16(a1)
    1cb8:	cfb9                	beqz	a5,1d16 <_fflush_r+0x60>
    1cba:	1101                	addi	sp,sp,-32
    1cbc:	cc22                	sw	s0,24(sp)
    1cbe:	ce06                	sw	ra,28(sp)
    1cc0:	842a                	mv	s0,a0
    1cc2:	c511                	beqz	a0,1cce <_fflush_r+0x18>
    1cc4:	4d1c                	lw	a5,24(a0)
    1cc6:	e781                	bnez	a5,1cce <_fflush_r+0x18>
    1cc8:	c62e                	sw	a1,12(sp)
    1cca:	2219                	jal	1dd0 <__sinit>
    1ccc:	45b2                	lw	a1,12(sp)
    1cce:	00001797          	auipc	a5,0x1
    1cd2:	f9a78793          	addi	a5,a5,-102 # 2c68 <__sf_fake_stdin>
    1cd6:	00f59b63          	bne	a1,a5,1cec <_fflush_r+0x36>
    1cda:	404c                	lw	a1,4(s0)
    1cdc:	00c59783          	lh	a5,12(a1)
    1ce0:	c795                	beqz	a5,1d0c <_fflush_r+0x56>
    1ce2:	8522                	mv	a0,s0
    1ce4:	4462                	lw	s0,24(sp)
    1ce6:	40f2                	lw	ra,28(sp)
    1ce8:	6105                	addi	sp,sp,32
    1cea:	bd71                	j	1b86 <__sflush_r>
    1cec:	00001797          	auipc	a5,0x1
    1cf0:	f9c78793          	addi	a5,a5,-100 # 2c88 <__sf_fake_stdout>
    1cf4:	00f59463          	bne	a1,a5,1cfc <_fflush_r+0x46>
    1cf8:	440c                	lw	a1,8(s0)
    1cfa:	b7cd                	j	1cdc <_fflush_r+0x26>
    1cfc:	00001797          	auipc	a5,0x1
    1d00:	f4c78793          	addi	a5,a5,-180 # 2c48 <__sf_fake_stderr>
    1d04:	fcf59ce3          	bne	a1,a5,1cdc <_fflush_r+0x26>
    1d08:	444c                	lw	a1,12(s0)
    1d0a:	bfc9                	j	1cdc <_fflush_r+0x26>
    1d0c:	40f2                	lw	ra,28(sp)
    1d0e:	4462                	lw	s0,24(sp)
    1d10:	4501                	li	a0,0
    1d12:	6105                	addi	sp,sp,32
    1d14:	8082                	ret
    1d16:	4501                	li	a0,0
    1d18:	8082                	ret

00001d1a <std>:
    1d1a:	1141                	addi	sp,sp,-16
    1d1c:	c422                	sw	s0,8(sp)
    1d1e:	c606                	sw	ra,12(sp)
    1d20:	842a                	mv	s0,a0
    1d22:	a54e                	sh	a1,12(a0)
    1d24:	a572                	sh	a2,14(a0)
    1d26:	00052023          	sw	zero,0(a0)
    1d2a:	00052223          	sw	zero,4(a0)
    1d2e:	00052423          	sw	zero,8(a0)
    1d32:	06052223          	sw	zero,100(a0)
    1d36:	00052823          	sw	zero,16(a0)
    1d3a:	00052a23          	sw	zero,20(a0)
    1d3e:	00052c23          	sw	zero,24(a0)
    1d42:	4621                	li	a2,8
    1d44:	4581                	li	a1,0
    1d46:	05c50513          	addi	a0,a0,92
    1d4a:	c16fe0ef          	jal	ra,160 <memset>
    1d4e:	00001797          	auipc	a5,0x1
    1d52:	b1678793          	addi	a5,a5,-1258 # 2864 <__sread>
    1d56:	d05c                	sw	a5,36(s0)
    1d58:	00001797          	auipc	a5,0x1
    1d5c:	b3878793          	addi	a5,a5,-1224 # 2890 <__swrite>
    1d60:	d41c                	sw	a5,40(s0)
    1d62:	00001797          	auipc	a5,0x1
    1d66:	b7678793          	addi	a5,a5,-1162 # 28d8 <__sseek>
    1d6a:	d45c                	sw	a5,44(s0)
    1d6c:	00001797          	auipc	a5,0x1
    1d70:	b9c78793          	addi	a5,a5,-1124 # 2908 <__sclose>
    1d74:	d000                	sw	s0,32(s0)
    1d76:	d81c                	sw	a5,48(s0)
    1d78:	40b2                	lw	ra,12(sp)
    1d7a:	4422                	lw	s0,8(sp)
    1d7c:	0141                	addi	sp,sp,16
    1d7e:	8082                	ret

00001d80 <_cleanup_r>:
    1d80:	00000597          	auipc	a1,0x0
    1d84:	f3658593          	addi	a1,a1,-202 # 1cb6 <_fflush_r>
    1d88:	a2a9                	j	1ed2 <_fwalk_reent>

00001d8a <__sfmoreglue>:
    1d8a:	1141                	addi	sp,sp,-16
    1d8c:	c226                	sw	s1,4(sp)
    1d8e:	06800613          	li	a2,104
    1d92:	fff58493          	addi	s1,a1,-1
    1d96:	02c484b3          	mul	s1,s1,a2
    1d9a:	c04a                	sw	s2,0(sp)
    1d9c:	892e                	mv	s2,a1
    1d9e:	c422                	sw	s0,8(sp)
    1da0:	c606                	sw	ra,12(sp)
    1da2:	07448593          	addi	a1,s1,116
    1da6:	261d                	jal	20cc <_malloc_r>
    1da8:	842a                	mv	s0,a0
    1daa:	cd01                	beqz	a0,1dc2 <__sfmoreglue+0x38>
    1dac:	00052023          	sw	zero,0(a0)
    1db0:	01252223          	sw	s2,4(a0)
    1db4:	0531                	addi	a0,a0,12
    1db6:	c408                	sw	a0,8(s0)
    1db8:	06848613          	addi	a2,s1,104
    1dbc:	4581                	li	a1,0
    1dbe:	ba2fe0ef          	jal	ra,160 <memset>
    1dc2:	8522                	mv	a0,s0
    1dc4:	40b2                	lw	ra,12(sp)
    1dc6:	4422                	lw	s0,8(sp)
    1dc8:	4492                	lw	s1,4(sp)
    1dca:	4902                	lw	s2,0(sp)
    1dcc:	0141                	addi	sp,sp,16
    1dce:	8082                	ret

00001dd0 <__sinit>:
    1dd0:	4d1c                	lw	a5,24(a0)
    1dd2:	e3ad                	bnez	a5,1e34 <__sinit+0x64>
    1dd4:	1141                	addi	sp,sp,-16
    1dd6:	c606                	sw	ra,12(sp)
    1dd8:	c422                	sw	s0,8(sp)
    1dda:	00000797          	auipc	a5,0x0
    1dde:	fa678793          	addi	a5,a5,-90 # 1d80 <_cleanup_r>
    1de2:	d51c                	sw	a5,40(a0)
    1de4:	82818793          	addi	a5,gp,-2008 # 200000c0 <_global_impure_ptr>
    1de8:	439c                	lw	a5,0(a5)
    1dea:	04052423          	sw	zero,72(a0)
    1dee:	04052623          	sw	zero,76(a0)
    1df2:	04052823          	sw	zero,80(a0)
    1df6:	00f51463          	bne	a0,a5,1dfe <__sinit+0x2e>
    1dfa:	4785                	li	a5,1
    1dfc:	cd1c                	sw	a5,24(a0)
    1dfe:	842a                	mv	s0,a0
    1e00:	281d                	jal	1e36 <__sfp>
    1e02:	c048                	sw	a0,4(s0)
    1e04:	8522                	mv	a0,s0
    1e06:	2805                	jal	1e36 <__sfp>
    1e08:	c408                	sw	a0,8(s0)
    1e0a:	8522                	mv	a0,s0
    1e0c:	202d                	jal	1e36 <__sfp>
    1e0e:	c448                	sw	a0,12(s0)
    1e10:	4048                	lw	a0,4(s0)
    1e12:	4601                	li	a2,0
    1e14:	4591                	li	a1,4
    1e16:	3711                	jal	1d1a <std>
    1e18:	4408                	lw	a0,8(s0)
    1e1a:	4605                	li	a2,1
    1e1c:	45a5                	li	a1,9
    1e1e:	3df5                	jal	1d1a <std>
    1e20:	4448                	lw	a0,12(s0)
    1e22:	4609                	li	a2,2
    1e24:	45c9                	li	a1,18
    1e26:	3dd5                	jal	1d1a <std>
    1e28:	4785                	li	a5,1
    1e2a:	cc1c                	sw	a5,24(s0)
    1e2c:	40b2                	lw	ra,12(sp)
    1e2e:	4422                	lw	s0,8(sp)
    1e30:	0141                	addi	sp,sp,16
    1e32:	8082                	ret
    1e34:	8082                	ret

00001e36 <__sfp>:
    1e36:	1141                	addi	sp,sp,-16
    1e38:	82818793          	addi	a5,gp,-2008 # 200000c0 <_global_impure_ptr>
    1e3c:	c226                	sw	s1,4(sp)
    1e3e:	4384                	lw	s1,0(a5)
    1e40:	c04a                	sw	s2,0(sp)
    1e42:	c606                	sw	ra,12(sp)
    1e44:	4c9c                	lw	a5,24(s1)
    1e46:	c422                	sw	s0,8(sp)
    1e48:	892a                	mv	s2,a0
    1e4a:	e399                	bnez	a5,1e50 <__sfp+0x1a>
    1e4c:	8526                	mv	a0,s1
    1e4e:	3749                	jal	1dd0 <__sinit>
    1e50:	04848493          	addi	s1,s1,72
    1e54:	4480                	lw	s0,8(s1)
    1e56:	40dc                	lw	a5,4(s1)
    1e58:	17fd                	addi	a5,a5,-1
    1e5a:	0007d663          	bgez	a5,1e66 <__sfp+0x30>
    1e5e:	409c                	lw	a5,0(s1)
    1e60:	cfb9                	beqz	a5,1ebe <__sfp+0x88>
    1e62:	4084                	lw	s1,0(s1)
    1e64:	bfc5                	j	1e54 <__sfp+0x1e>
    1e66:	00c41703          	lh	a4,12(s0)
    1e6a:	e739                	bnez	a4,1eb8 <__sfp+0x82>
    1e6c:	77c1                	lui	a5,0xffff0
    1e6e:	0785                	addi	a5,a5,1
    1e70:	06042223          	sw	zero,100(s0)
    1e74:	00042023          	sw	zero,0(s0)
    1e78:	00042223          	sw	zero,4(s0)
    1e7c:	00042423          	sw	zero,8(s0)
    1e80:	c45c                	sw	a5,12(s0)
    1e82:	00042823          	sw	zero,16(s0)
    1e86:	00042a23          	sw	zero,20(s0)
    1e8a:	00042c23          	sw	zero,24(s0)
    1e8e:	4621                	li	a2,8
    1e90:	4581                	li	a1,0
    1e92:	05c40513          	addi	a0,s0,92
    1e96:	acafe0ef          	jal	ra,160 <memset>
    1e9a:	02042a23          	sw	zero,52(s0)
    1e9e:	02042c23          	sw	zero,56(s0)
    1ea2:	04042423          	sw	zero,72(s0)
    1ea6:	04042623          	sw	zero,76(s0)
    1eaa:	8522                	mv	a0,s0
    1eac:	40b2                	lw	ra,12(sp)
    1eae:	4422                	lw	s0,8(sp)
    1eb0:	4492                	lw	s1,4(sp)
    1eb2:	4902                	lw	s2,0(sp)
    1eb4:	0141                	addi	sp,sp,16
    1eb6:	8082                	ret
    1eb8:	06840413          	addi	s0,s0,104
    1ebc:	bf71                	j	1e58 <__sfp+0x22>
    1ebe:	4591                	li	a1,4
    1ec0:	854a                	mv	a0,s2
    1ec2:	35e1                	jal	1d8a <__sfmoreglue>
    1ec4:	c088                	sw	a0,0(s1)
    1ec6:	fd51                	bnez	a0,1e62 <__sfp+0x2c>
    1ec8:	47b1                	li	a5,12
    1eca:	00f92023          	sw	a5,0(s2)
    1ece:	4401                	li	s0,0
    1ed0:	bfe9                	j	1eaa <__sfp+0x74>

00001ed2 <_fwalk_reent>:
    1ed2:	7179                	addi	sp,sp,-48
    1ed4:	d422                	sw	s0,40(sp)
    1ed6:	d04a                	sw	s2,32(sp)
    1ed8:	cc52                	sw	s4,24(sp)
    1eda:	ca56                	sw	s5,20(sp)
    1edc:	c85a                	sw	s6,16(sp)
    1ede:	c65e                	sw	s7,12(sp)
    1ee0:	d606                	sw	ra,44(sp)
    1ee2:	d226                	sw	s1,36(sp)
    1ee4:	ce4e                	sw	s3,28(sp)
    1ee6:	8a2a                	mv	s4,a0
    1ee8:	8aae                	mv	s5,a1
    1eea:	04850413          	addi	s0,a0,72
    1eee:	4901                	li	s2,0
    1ef0:	4b05                	li	s6,1
    1ef2:	5bfd                	li	s7,-1
    1ef4:	ec09                	bnez	s0,1f0e <_fwalk_reent+0x3c>
    1ef6:	50b2                	lw	ra,44(sp)
    1ef8:	5422                	lw	s0,40(sp)
    1efa:	854a                	mv	a0,s2
    1efc:	5492                	lw	s1,36(sp)
    1efe:	5902                	lw	s2,32(sp)
    1f00:	49f2                	lw	s3,28(sp)
    1f02:	4a62                	lw	s4,24(sp)
    1f04:	4ad2                	lw	s5,20(sp)
    1f06:	4b42                	lw	s6,16(sp)
    1f08:	4bb2                	lw	s7,12(sp)
    1f0a:	6145                	addi	sp,sp,48
    1f0c:	8082                	ret
    1f0e:	4404                	lw	s1,8(s0)
    1f10:	00442983          	lw	s3,4(s0)
    1f14:	19fd                	addi	s3,s3,-1
    1f16:	0009d463          	bgez	s3,1f1e <_fwalk_reent+0x4c>
    1f1a:	4000                	lw	s0,0(s0)
    1f1c:	bfe1                	j	1ef4 <_fwalk_reent+0x22>
    1f1e:	24de                	lhu	a5,12(s1)
    1f20:	00fb7b63          	bgeu	s6,a5,1f36 <_fwalk_reent+0x64>
    1f24:	00e49783          	lh	a5,14(s1)
    1f28:	01778763          	beq	a5,s7,1f36 <_fwalk_reent+0x64>
    1f2c:	85a6                	mv	a1,s1
    1f2e:	8552                	mv	a0,s4
    1f30:	9a82                	jalr	s5
    1f32:	00a96933          	or	s2,s2,a0
    1f36:	06848493          	addi	s1,s1,104
    1f3a:	bfe9                	j	1f14 <_fwalk_reent+0x42>

00001f3c <__swhatbuf_r>:
    1f3c:	7119                	addi	sp,sp,-128
    1f3e:	daa6                	sw	s1,116(sp)
    1f40:	84ae                	mv	s1,a1
    1f42:	00e59583          	lh	a1,14(a1)
    1f46:	dca2                	sw	s0,120(sp)
    1f48:	de86                	sw	ra,124(sp)
    1f4a:	8432                	mv	s0,a2
    1f4c:	0005db63          	bgez	a1,1f62 <__swhatbuf_r+0x26>
    1f50:	24de                	lhu	a5,12(s1)
    1f52:	0006a023          	sw	zero,0(a3)
    1f56:	0807f793          	andi	a5,a5,128
    1f5a:	e785                	bnez	a5,1f82 <__swhatbuf_r+0x46>
    1f5c:	40000793          	li	a5,1024
    1f60:	a01d                	j	1f86 <__swhatbuf_r+0x4a>
    1f62:	0830                	addi	a2,sp,24
    1f64:	c636                	sw	a3,12(sp)
    1f66:	1ff000ef          	jal	ra,2964 <_fstat_r>
    1f6a:	46b2                	lw	a3,12(sp)
    1f6c:	fe0542e3          	bltz	a0,1f50 <__swhatbuf_r+0x14>
    1f70:	4772                	lw	a4,28(sp)
    1f72:	67bd                	lui	a5,0xf
    1f74:	8ff9                	and	a5,a5,a4
    1f76:	7779                	lui	a4,0xffffe
    1f78:	97ba                	add	a5,a5,a4
    1f7a:	0017b793          	seqz	a5,a5
    1f7e:	c29c                	sw	a5,0(a3)
    1f80:	bff1                	j	1f5c <__swhatbuf_r+0x20>
    1f82:	04000793          	li	a5,64
    1f86:	c01c                	sw	a5,0(s0)
    1f88:	50f6                	lw	ra,124(sp)
    1f8a:	5466                	lw	s0,120(sp)
    1f8c:	54d6                	lw	s1,116(sp)
    1f8e:	4501                	li	a0,0
    1f90:	6109                	addi	sp,sp,128
    1f92:	8082                	ret

00001f94 <__smakebuf_r>:
    1f94:	25de                	lhu	a5,12(a1)
    1f96:	1101                	addi	sp,sp,-32
    1f98:	cc22                	sw	s0,24(sp)
    1f9a:	ce06                	sw	ra,28(sp)
    1f9c:	ca26                	sw	s1,20(sp)
    1f9e:	c84a                	sw	s2,16(sp)
    1fa0:	8b89                	andi	a5,a5,2
    1fa2:	842e                	mv	s0,a1
    1fa4:	cf89                	beqz	a5,1fbe <__smakebuf_r+0x2a>
    1fa6:	04740793          	addi	a5,s0,71
    1faa:	c01c                	sw	a5,0(s0)
    1fac:	c81c                	sw	a5,16(s0)
    1fae:	4785                	li	a5,1
    1fb0:	c85c                	sw	a5,20(s0)
    1fb2:	40f2                	lw	ra,28(sp)
    1fb4:	4462                	lw	s0,24(sp)
    1fb6:	44d2                	lw	s1,20(sp)
    1fb8:	4942                	lw	s2,16(sp)
    1fba:	6105                	addi	sp,sp,32
    1fbc:	8082                	ret
    1fbe:	0074                	addi	a3,sp,12
    1fc0:	0030                	addi	a2,sp,8
    1fc2:	84aa                	mv	s1,a0
    1fc4:	3fa5                	jal	1f3c <__swhatbuf_r>
    1fc6:	45a2                	lw	a1,8(sp)
    1fc8:	892a                	mv	s2,a0
    1fca:	8526                	mv	a0,s1
    1fcc:	2201                	jal	20cc <_malloc_r>
    1fce:	e919                	bnez	a0,1fe4 <__smakebuf_r+0x50>
    1fd0:	00c41783          	lh	a5,12(s0)
    1fd4:	2007f713          	andi	a4,a5,512
    1fd8:	ff69                	bnez	a4,1fb2 <__smakebuf_r+0x1e>
    1fda:	9bf1                	andi	a5,a5,-4
    1fdc:	0027e793          	ori	a5,a5,2
    1fe0:	a45e                	sh	a5,12(s0)
    1fe2:	b7d1                	j	1fa6 <__smakebuf_r+0x12>
    1fe4:	00000797          	auipc	a5,0x0
    1fe8:	d9c78793          	addi	a5,a5,-612 # 1d80 <_cleanup_r>
    1fec:	d49c                	sw	a5,40(s1)
    1fee:	245e                	lhu	a5,12(s0)
    1ff0:	c008                	sw	a0,0(s0)
    1ff2:	c808                	sw	a0,16(s0)
    1ff4:	0807e793          	ori	a5,a5,128
    1ff8:	a45e                	sh	a5,12(s0)
    1ffa:	47a2                	lw	a5,8(sp)
    1ffc:	c85c                	sw	a5,20(s0)
    1ffe:	47b2                	lw	a5,12(sp)
    2000:	cf81                	beqz	a5,2018 <__smakebuf_r+0x84>
    2002:	00e41583          	lh	a1,14(s0)
    2006:	8526                	mv	a0,s1
    2008:	187000ef          	jal	ra,298e <_isatty_r>
    200c:	c511                	beqz	a0,2018 <__smakebuf_r+0x84>
    200e:	245e                	lhu	a5,12(s0)
    2010:	9bf1                	andi	a5,a5,-4
    2012:	0017e793          	ori	a5,a5,1
    2016:	a45e                	sh	a5,12(s0)
    2018:	245e                	lhu	a5,12(s0)
    201a:	00f96933          	or	s2,s2,a5
    201e:	01241623          	sh	s2,12(s0)
    2022:	bf41                	j	1fb2 <__smakebuf_r+0x1e>

00002024 <_free_r>:
    2024:	c1dd                	beqz	a1,20ca <_free_r+0xa6>
    2026:	ffc5a783          	lw	a5,-4(a1)
    202a:	1141                	addi	sp,sp,-16
    202c:	c422                	sw	s0,8(sp)
    202e:	c606                	sw	ra,12(sp)
    2030:	c226                	sw	s1,4(sp)
    2032:	ffc58413          	addi	s0,a1,-4
    2036:	0007d363          	bgez	a5,203c <_free_r+0x18>
    203a:	943e                	add	s0,s0,a5
    203c:	84aa                	mv	s1,a0
    203e:	1bd000ef          	jal	ra,29fa <__malloc_lock>
    2042:	87818793          	addi	a5,gp,-1928 # 20000110 <__malloc_free_list>
    2046:	439c                	lw	a5,0(a5)
    2048:	ef81                	bnez	a5,2060 <_free_r+0x3c>
    204a:	00042223          	sw	zero,4(s0)
    204e:	8681ac23          	sw	s0,-1928(gp) # 20000110 <__malloc_free_list>
    2052:	4422                	lw	s0,8(sp)
    2054:	40b2                	lw	ra,12(sp)
    2056:	8526                	mv	a0,s1
    2058:	4492                	lw	s1,4(sp)
    205a:	0141                	addi	sp,sp,16
    205c:	1a10006f          	j	29fc <__malloc_unlock>
    2060:	00f47e63          	bgeu	s0,a5,207c <_free_r+0x58>
    2064:	4014                	lw	a3,0(s0)
    2066:	00d40733          	add	a4,s0,a3
    206a:	00e79663          	bne	a5,a4,2076 <_free_r+0x52>
    206e:	4398                	lw	a4,0(a5)
    2070:	43dc                	lw	a5,4(a5)
    2072:	9736                	add	a4,a4,a3
    2074:	c018                	sw	a4,0(s0)
    2076:	c05c                	sw	a5,4(s0)
    2078:	bfd9                	j	204e <_free_r+0x2a>
    207a:	87ba                	mv	a5,a4
    207c:	43d8                	lw	a4,4(a5)
    207e:	c319                	beqz	a4,2084 <_free_r+0x60>
    2080:	fee47de3          	bgeu	s0,a4,207a <_free_r+0x56>
    2084:	4394                	lw	a3,0(a5)
    2086:	00d78633          	add	a2,a5,a3
    208a:	00861f63          	bne	a2,s0,20a8 <_free_r+0x84>
    208e:	4010                	lw	a2,0(s0)
    2090:	96b2                	add	a3,a3,a2
    2092:	c394                	sw	a3,0(a5)
    2094:	00d78633          	add	a2,a5,a3
    2098:	fac71de3          	bne	a4,a2,2052 <_free_r+0x2e>
    209c:	4310                	lw	a2,0(a4)
    209e:	4358                	lw	a4,4(a4)
    20a0:	96b2                	add	a3,a3,a2
    20a2:	c394                	sw	a3,0(a5)
    20a4:	c3d8                	sw	a4,4(a5)
    20a6:	b775                	j	2052 <_free_r+0x2e>
    20a8:	00c47563          	bgeu	s0,a2,20b2 <_free_r+0x8e>
    20ac:	47b1                	li	a5,12
    20ae:	c09c                	sw	a5,0(s1)
    20b0:	b74d                	j	2052 <_free_r+0x2e>
    20b2:	4010                	lw	a2,0(s0)
    20b4:	00c406b3          	add	a3,s0,a2
    20b8:	00d71663          	bne	a4,a3,20c4 <_free_r+0xa0>
    20bc:	4314                	lw	a3,0(a4)
    20be:	4358                	lw	a4,4(a4)
    20c0:	96b2                	add	a3,a3,a2
    20c2:	c014                	sw	a3,0(s0)
    20c4:	c058                	sw	a4,4(s0)
    20c6:	c3c0                	sw	s0,4(a5)
    20c8:	b769                	j	2052 <_free_r+0x2e>
    20ca:	8082                	ret

000020cc <_malloc_r>:
    20cc:	1101                	addi	sp,sp,-32
    20ce:	ca26                	sw	s1,20(sp)
    20d0:	00358493          	addi	s1,a1,3
    20d4:	98f1                	andi	s1,s1,-4
    20d6:	ce06                	sw	ra,28(sp)
    20d8:	cc22                	sw	s0,24(sp)
    20da:	c84a                	sw	s2,16(sp)
    20dc:	c64e                	sw	s3,12(sp)
    20de:	04a1                	addi	s1,s1,8
    20e0:	47b1                	li	a5,12
    20e2:	04f4f363          	bgeu	s1,a5,2128 <_malloc_r+0x5c>
    20e6:	44b1                	li	s1,12
    20e8:	04b4e263          	bltu	s1,a1,212c <_malloc_r+0x60>
    20ec:	892a                	mv	s2,a0
    20ee:	10d000ef          	jal	ra,29fa <__malloc_lock>
    20f2:	87818793          	addi	a5,gp,-1928 # 20000110 <__malloc_free_list>
    20f6:	4398                	lw	a4,0(a5)
    20f8:	843a                	mv	s0,a4
    20fa:	e039                	bnez	s0,2140 <_malloc_r+0x74>
    20fc:	87c18793          	addi	a5,gp,-1924 # 20000114 <__malloc_sbrk_start>
    2100:	439c                	lw	a5,0(a5)
    2102:	e791                	bnez	a5,210e <_malloc_r+0x42>
    2104:	4581                	li	a1,0
    2106:	854a                	mv	a0,s2
    2108:	2f0d                	jal	283a <_sbrk_r>
    210a:	86a1ae23          	sw	a0,-1924(gp) # 20000114 <__malloc_sbrk_start>
    210e:	85a6                	mv	a1,s1
    2110:	854a                	mv	a0,s2
    2112:	2725                	jal	283a <_sbrk_r>
    2114:	59fd                	li	s3,-1
    2116:	07351963          	bne	a0,s3,2188 <_malloc_r+0xbc>
    211a:	47b1                	li	a5,12
    211c:	00f92023          	sw	a5,0(s2)
    2120:	854a                	mv	a0,s2
    2122:	0db000ef          	jal	ra,29fc <__malloc_unlock>
    2126:	a029                	j	2130 <_malloc_r+0x64>
    2128:	fc04d0e3          	bgez	s1,20e8 <_malloc_r+0x1c>
    212c:	47b1                	li	a5,12
    212e:	c11c                	sw	a5,0(a0)
    2130:	4501                	li	a0,0
    2132:	40f2                	lw	ra,28(sp)
    2134:	4462                	lw	s0,24(sp)
    2136:	44d2                	lw	s1,20(sp)
    2138:	4942                	lw	s2,16(sp)
    213a:	49b2                	lw	s3,12(sp)
    213c:	6105                	addi	sp,sp,32
    213e:	8082                	ret
    2140:	401c                	lw	a5,0(s0)
    2142:	8f85                	sub	a5,a5,s1
    2144:	0207cf63          	bltz	a5,2182 <_malloc_r+0xb6>
    2148:	46ad                	li	a3,11
    214a:	00f6f663          	bgeu	a3,a5,2156 <_malloc_r+0x8a>
    214e:	c01c                	sw	a5,0(s0)
    2150:	943e                	add	s0,s0,a5
    2152:	c004                	sw	s1,0(s0)
    2154:	a031                	j	2160 <_malloc_r+0x94>
    2156:	405c                	lw	a5,4(s0)
    2158:	02871363          	bne	a4,s0,217e <_malloc_r+0xb2>
    215c:	86f1ac23          	sw	a5,-1928(gp) # 20000110 <__malloc_free_list>
    2160:	854a                	mv	a0,s2
    2162:	09b000ef          	jal	ra,29fc <__malloc_unlock>
    2166:	00b40513          	addi	a0,s0,11
    216a:	00440793          	addi	a5,s0,4
    216e:	9961                	andi	a0,a0,-8
    2170:	40f50733          	sub	a4,a0,a5
    2174:	df5d                	beqz	a4,2132 <_malloc_r+0x66>
    2176:	943a                	add	s0,s0,a4
    2178:	8f89                	sub	a5,a5,a0
    217a:	c01c                	sw	a5,0(s0)
    217c:	bf5d                	j	2132 <_malloc_r+0x66>
    217e:	c35c                	sw	a5,4(a4)
    2180:	b7c5                	j	2160 <_malloc_r+0x94>
    2182:	8722                	mv	a4,s0
    2184:	4040                	lw	s0,4(s0)
    2186:	bf95                	j	20fa <_malloc_r+0x2e>
    2188:	00350413          	addi	s0,a0,3
    218c:	9871                	andi	s0,s0,-4
    218e:	fc8502e3          	beq	a0,s0,2152 <_malloc_r+0x86>
    2192:	40a405b3          	sub	a1,s0,a0
    2196:	854a                	mv	a0,s2
    2198:	254d                	jal	283a <_sbrk_r>
    219a:	fb351ce3          	bne	a0,s3,2152 <_malloc_r+0x86>
    219e:	bfb5                	j	211a <_malloc_r+0x4e>

000021a0 <__sfputc_r>:
    21a0:	461c                	lw	a5,8(a2)
    21a2:	17fd                	addi	a5,a5,-1
    21a4:	c61c                	sw	a5,8(a2)
    21a6:	0007da63          	bgez	a5,21ba <__sfputc_r+0x1a>
    21aa:	4e18                	lw	a4,24(a2)
    21ac:	00e7c563          	blt	a5,a4,21b6 <__sfputc_r+0x16>
    21b0:	47a9                	li	a5,10
    21b2:	00f59463          	bne	a1,a5,21ba <__sfputc_r+0x1a>
    21b6:	819ff06f          	j	19ce <__swbuf_r>
    21ba:	421c                	lw	a5,0(a2)
    21bc:	852e                	mv	a0,a1
    21be:	00178713          	addi	a4,a5,1
    21c2:	c218                	sw	a4,0(a2)
    21c4:	a38c                	sb	a1,0(a5)
    21c6:	8082                	ret

000021c8 <__sfputs_r>:
    21c8:	1101                	addi	sp,sp,-32
    21ca:	cc22                	sw	s0,24(sp)
    21cc:	ca26                	sw	s1,20(sp)
    21ce:	c84a                	sw	s2,16(sp)
    21d0:	c64e                	sw	s3,12(sp)
    21d2:	c452                	sw	s4,8(sp)
    21d4:	ce06                	sw	ra,28(sp)
    21d6:	892a                	mv	s2,a0
    21d8:	89ae                	mv	s3,a1
    21da:	8432                	mv	s0,a2
    21dc:	00d604b3          	add	s1,a2,a3
    21e0:	5a7d                	li	s4,-1
    21e2:	00941463          	bne	s0,s1,21ea <__sfputs_r+0x22>
    21e6:	4501                	li	a0,0
    21e8:	a801                	j	21f8 <__sfputs_r+0x30>
    21ea:	200c                	lbu	a1,0(s0)
    21ec:	864e                	mv	a2,s3
    21ee:	854a                	mv	a0,s2
    21f0:	3f45                	jal	21a0 <__sfputc_r>
    21f2:	0405                	addi	s0,s0,1
    21f4:	ff4517e3          	bne	a0,s4,21e2 <__sfputs_r+0x1a>
    21f8:	40f2                	lw	ra,28(sp)
    21fa:	4462                	lw	s0,24(sp)
    21fc:	44d2                	lw	s1,20(sp)
    21fe:	4942                	lw	s2,16(sp)
    2200:	49b2                	lw	s3,12(sp)
    2202:	4a22                	lw	s4,8(sp)
    2204:	6105                	addi	sp,sp,32
    2206:	8082                	ret

00002208 <_vfiprintf_r>:
    2208:	7135                	addi	sp,sp,-160
    220a:	cd22                	sw	s0,152(sp)
    220c:	cb26                	sw	s1,148(sp)
    220e:	c94a                	sw	s2,144(sp)
    2210:	c74e                	sw	s3,140(sp)
    2212:	cf06                	sw	ra,156(sp)
    2214:	c552                	sw	s4,136(sp)
    2216:	c356                	sw	s5,132(sp)
    2218:	c15a                	sw	s6,128(sp)
    221a:	dede                	sw	s7,124(sp)
    221c:	dce2                	sw	s8,120(sp)
    221e:	dae6                	sw	s9,116(sp)
    2220:	89aa                	mv	s3,a0
    2222:	84ae                	mv	s1,a1
    2224:	8932                	mv	s2,a2
    2226:	8436                	mv	s0,a3
    2228:	c509                	beqz	a0,2232 <_vfiprintf_r+0x2a>
    222a:	4d1c                	lw	a5,24(a0)
    222c:	e399                	bnez	a5,2232 <_vfiprintf_r+0x2a>
    222e:	ba3ff0ef          	jal	ra,1dd0 <__sinit>
    2232:	00001797          	auipc	a5,0x1
    2236:	a3678793          	addi	a5,a5,-1482 # 2c68 <__sf_fake_stdin>
    223a:	0cf49763          	bne	s1,a5,2308 <_vfiprintf_r+0x100>
    223e:	0049a483          	lw	s1,4(s3)
    2242:	24de                	lhu	a5,12(s1)
    2244:	8ba1                	andi	a5,a5,8
    2246:	c3fd                	beqz	a5,232c <_vfiprintf_r+0x124>
    2248:	489c                	lw	a5,16(s1)
    224a:	c3ed                	beqz	a5,232c <_vfiprintf_r+0x124>
    224c:	02000793          	li	a5,32
    2250:	02f104a3          	sb	a5,41(sp)
    2254:	03000793          	li	a5,48
    2258:	d202                	sw	zero,36(sp)
    225a:	02f10523          	sb	a5,42(sp)
    225e:	c622                	sw	s0,12(sp)
    2260:	02500b93          	li	s7,37
    2264:	00001a97          	auipc	s5,0x1
    2268:	a44a8a93          	addi	s5,s5,-1468 # 2ca8 <__sf_fake_stdout+0x20>
    226c:	4c05                	li	s8,1
    226e:	4b29                	li	s6,10
    2270:	844a                	mv	s0,s2
    2272:	201c                	lbu	a5,0(s0)
    2274:	c399                	beqz	a5,227a <_vfiprintf_r+0x72>
    2276:	0d779e63          	bne	a5,s7,2352 <_vfiprintf_r+0x14a>
    227a:	41240cb3          	sub	s9,s0,s2
    227e:	000c8d63          	beqz	s9,2298 <_vfiprintf_r+0x90>
    2282:	86e6                	mv	a3,s9
    2284:	864a                	mv	a2,s2
    2286:	85a6                	mv	a1,s1
    2288:	854e                	mv	a0,s3
    228a:	3f3d                	jal	21c8 <__sfputs_r>
    228c:	57fd                	li	a5,-1
    228e:	1cf50f63          	beq	a0,a5,246c <_vfiprintf_r+0x264>
    2292:	5692                	lw	a3,36(sp)
    2294:	96e6                	add	a3,a3,s9
    2296:	d236                	sw	a3,36(sp)
    2298:	201c                	lbu	a5,0(s0)
    229a:	1c078963          	beqz	a5,246c <_vfiprintf_r+0x264>
    229e:	57fd                	li	a5,-1
    22a0:	00140913          	addi	s2,s0,1
    22a4:	c802                	sw	zero,16(sp)
    22a6:	ce02                	sw	zero,28(sp)
    22a8:	ca3e                	sw	a5,20(sp)
    22aa:	cc02                	sw	zero,24(sp)
    22ac:	040109a3          	sb	zero,83(sp)
    22b0:	d482                	sw	zero,104(sp)
    22b2:	00094583          	lbu	a1,0(s2)
    22b6:	4615                	li	a2,5
    22b8:	8556                	mv	a0,s5
    22ba:	2725                	jal	29e2 <memchr>
    22bc:	00190413          	addi	s0,s2,1
    22c0:	47c2                	lw	a5,16(sp)
    22c2:	e951                	bnez	a0,2356 <_vfiprintf_r+0x14e>
    22c4:	0107f713          	andi	a4,a5,16
    22c8:	c709                	beqz	a4,22d2 <_vfiprintf_r+0xca>
    22ca:	02000713          	li	a4,32
    22ce:	04e109a3          	sb	a4,83(sp)
    22d2:	0087f713          	andi	a4,a5,8
    22d6:	c709                	beqz	a4,22e0 <_vfiprintf_r+0xd8>
    22d8:	02b00713          	li	a4,43
    22dc:	04e109a3          	sb	a4,83(sp)
    22e0:	00094683          	lbu	a3,0(s2)
    22e4:	02a00713          	li	a4,42
    22e8:	06e68f63          	beq	a3,a4,2366 <_vfiprintf_r+0x15e>
    22ec:	47f2                	lw	a5,28(sp)
    22ee:	844a                	mv	s0,s2
    22f0:	4681                	li	a3,0
    22f2:	4625                	li	a2,9
    22f4:	2018                	lbu	a4,0(s0)
    22f6:	00140593          	addi	a1,s0,1
    22fa:	fd070713          	addi	a4,a4,-48 # ffffdfd0 <_eusrstack+0xdfff8fd0>
    22fe:	0ae67763          	bgeu	a2,a4,23ac <_vfiprintf_r+0x1a4>
    2302:	cab5                	beqz	a3,2376 <_vfiprintf_r+0x16e>
    2304:	ce3e                	sw	a5,28(sp)
    2306:	a885                	j	2376 <_vfiprintf_r+0x16e>
    2308:	00001797          	auipc	a5,0x1
    230c:	98078793          	addi	a5,a5,-1664 # 2c88 <__sf_fake_stdout>
    2310:	00f49563          	bne	s1,a5,231a <_vfiprintf_r+0x112>
    2314:	0089a483          	lw	s1,8(s3)
    2318:	b72d                	j	2242 <_vfiprintf_r+0x3a>
    231a:	00001797          	auipc	a5,0x1
    231e:	92e78793          	addi	a5,a5,-1746 # 2c48 <__sf_fake_stderr>
    2322:	f2f490e3          	bne	s1,a5,2242 <_vfiprintf_r+0x3a>
    2326:	00c9a483          	lw	s1,12(s3)
    232a:	bf21                	j	2242 <_vfiprintf_r+0x3a>
    232c:	85a6                	mv	a1,s1
    232e:	854e                	mv	a0,s3
    2330:	f5aff0ef          	jal	ra,1a8a <__swsetup_r>
    2334:	dd01                	beqz	a0,224c <_vfiprintf_r+0x44>
    2336:	557d                	li	a0,-1
    2338:	40fa                	lw	ra,156(sp)
    233a:	446a                	lw	s0,152(sp)
    233c:	44da                	lw	s1,148(sp)
    233e:	494a                	lw	s2,144(sp)
    2340:	49ba                	lw	s3,140(sp)
    2342:	4a2a                	lw	s4,136(sp)
    2344:	4a9a                	lw	s5,132(sp)
    2346:	4b0a                	lw	s6,128(sp)
    2348:	5bf6                	lw	s7,124(sp)
    234a:	5c66                	lw	s8,120(sp)
    234c:	5cd6                	lw	s9,116(sp)
    234e:	610d                	addi	sp,sp,160
    2350:	8082                	ret
    2352:	0405                	addi	s0,s0,1
    2354:	bf39                	j	2272 <_vfiprintf_r+0x6a>
    2356:	41550533          	sub	a0,a0,s5
    235a:	00ac1533          	sll	a0,s8,a0
    235e:	8fc9                	or	a5,a5,a0
    2360:	c83e                	sw	a5,16(sp)
    2362:	8922                	mv	s2,s0
    2364:	b7b9                	j	22b2 <_vfiprintf_r+0xaa>
    2366:	4732                	lw	a4,12(sp)
    2368:	00470693          	addi	a3,a4,4
    236c:	4318                	lw	a4,0(a4)
    236e:	c636                	sw	a3,12(sp)
    2370:	02074763          	bltz	a4,239e <_vfiprintf_r+0x196>
    2374:	ce3a                	sw	a4,28(sp)
    2376:	2018                	lbu	a4,0(s0)
    2378:	02e00793          	li	a5,46
    237c:	04f71d63          	bne	a4,a5,23d6 <_vfiprintf_r+0x1ce>
    2380:	3018                	lbu	a4,1(s0)
    2382:	02a00793          	li	a5,42
    2386:	02f71b63          	bne	a4,a5,23bc <_vfiprintf_r+0x1b4>
    238a:	47b2                	lw	a5,12(sp)
    238c:	0409                	addi	s0,s0,2
    238e:	00478713          	addi	a4,a5,4
    2392:	439c                	lw	a5,0(a5)
    2394:	c63a                	sw	a4,12(sp)
    2396:	0207c163          	bltz	a5,23b8 <_vfiprintf_r+0x1b0>
    239a:	ca3e                	sw	a5,20(sp)
    239c:	a82d                	j	23d6 <_vfiprintf_r+0x1ce>
    239e:	40e00733          	neg	a4,a4
    23a2:	0027e793          	ori	a5,a5,2
    23a6:	ce3a                	sw	a4,28(sp)
    23a8:	c83e                	sw	a5,16(sp)
    23aa:	b7f1                	j	2376 <_vfiprintf_r+0x16e>
    23ac:	036787b3          	mul	a5,a5,s6
    23b0:	4685                	li	a3,1
    23b2:	842e                	mv	s0,a1
    23b4:	97ba                	add	a5,a5,a4
    23b6:	bf3d                	j	22f4 <_vfiprintf_r+0xec>
    23b8:	57fd                	li	a5,-1
    23ba:	b7c5                	j	239a <_vfiprintf_r+0x192>
    23bc:	0405                	addi	s0,s0,1
    23be:	ca02                	sw	zero,20(sp)
    23c0:	4681                	li	a3,0
    23c2:	4781                	li	a5,0
    23c4:	4625                	li	a2,9
    23c6:	2018                	lbu	a4,0(s0)
    23c8:	00140593          	addi	a1,s0,1
    23cc:	fd070713          	addi	a4,a4,-48
    23d0:	06e67463          	bgeu	a2,a4,2438 <_vfiprintf_r+0x230>
    23d4:	f2f9                	bnez	a3,239a <_vfiprintf_r+0x192>
    23d6:	200c                	lbu	a1,0(s0)
    23d8:	460d                	li	a2,3
    23da:	00001517          	auipc	a0,0x1
    23de:	8d650513          	addi	a0,a0,-1834 # 2cb0 <__sf_fake_stdout+0x28>
    23e2:	2501                	jal	29e2 <memchr>
    23e4:	cd11                	beqz	a0,2400 <_vfiprintf_r+0x1f8>
    23e6:	00001797          	auipc	a5,0x1
    23ea:	8ca78793          	addi	a5,a5,-1846 # 2cb0 <__sf_fake_stdout+0x28>
    23ee:	8d1d                	sub	a0,a0,a5
    23f0:	04000793          	li	a5,64
    23f4:	00a797b3          	sll	a5,a5,a0
    23f8:	4542                	lw	a0,16(sp)
    23fa:	0405                	addi	s0,s0,1
    23fc:	8d5d                	or	a0,a0,a5
    23fe:	c82a                	sw	a0,16(sp)
    2400:	200c                	lbu	a1,0(s0)
    2402:	4619                	li	a2,6
    2404:	00001517          	auipc	a0,0x1
    2408:	8b050513          	addi	a0,a0,-1872 # 2cb4 <__sf_fake_stdout+0x2c>
    240c:	00140913          	addi	s2,s0,1
    2410:	02b10423          	sb	a1,40(sp)
    2414:	23f9                	jal	29e2 <memchr>
    2416:	c135                	beqz	a0,247a <_vfiprintf_r+0x272>
    2418:	ffffe797          	auipc	a5,0xffffe
    241c:	be878793          	addi	a5,a5,-1048 # 0 <_sinit>
    2420:	e795                	bnez	a5,244c <_vfiprintf_r+0x244>
    2422:	4742                	lw	a4,16(sp)
    2424:	47b2                	lw	a5,12(sp)
    2426:	10077713          	andi	a4,a4,256
    242a:	cf09                	beqz	a4,2444 <_vfiprintf_r+0x23c>
    242c:	0791                	addi	a5,a5,4
    242e:	c63e                	sw	a5,12(sp)
    2430:	5792                	lw	a5,36(sp)
    2432:	97d2                	add	a5,a5,s4
    2434:	d23e                	sw	a5,36(sp)
    2436:	bd2d                	j	2270 <_vfiprintf_r+0x68>
    2438:	036787b3          	mul	a5,a5,s6
    243c:	4685                	li	a3,1
    243e:	842e                	mv	s0,a1
    2440:	97ba                	add	a5,a5,a4
    2442:	b751                	j	23c6 <_vfiprintf_r+0x1be>
    2444:	079d                	addi	a5,a5,7
    2446:	9be1                	andi	a5,a5,-8
    2448:	07a1                	addi	a5,a5,8
    244a:	b7d5                	j	242e <_vfiprintf_r+0x226>
    244c:	0078                	addi	a4,sp,12
    244e:	00000697          	auipc	a3,0x0
    2452:	d7a68693          	addi	a3,a3,-646 # 21c8 <__sfputs_r>
    2456:	8626                	mv	a2,s1
    2458:	080c                	addi	a1,sp,16
    245a:	854e                	mv	a0,s3
    245c:	00000097          	auipc	ra,0x0
    2460:	000000e7          	jalr	zero # 0 <_sinit>
    2464:	57fd                	li	a5,-1
    2466:	8a2a                	mv	s4,a0
    2468:	fcf514e3          	bne	a0,a5,2430 <_vfiprintf_r+0x228>
    246c:	24de                	lhu	a5,12(s1)
    246e:	0407f793          	andi	a5,a5,64
    2472:	ec0792e3          	bnez	a5,2336 <_vfiprintf_r+0x12e>
    2476:	5512                	lw	a0,36(sp)
    2478:	b5c1                	j	2338 <_vfiprintf_r+0x130>
    247a:	0078                	addi	a4,sp,12
    247c:	00000697          	auipc	a3,0x0
    2480:	d4c68693          	addi	a3,a3,-692 # 21c8 <__sfputs_r>
    2484:	8626                	mv	a2,s1
    2486:	080c                	addi	a1,sp,16
    2488:	854e                	mv	a0,s3
    248a:	2a01                	jal	259a <_printf_i>
    248c:	bfe1                	j	2464 <_vfiprintf_r+0x25c>

0000248e <_printf_common>:
    248e:	7179                	addi	sp,sp,-48
    2490:	ca56                	sw	s5,20(sp)
    2492:	499c                	lw	a5,16(a1)
    2494:	8aba                	mv	s5,a4
    2496:	4598                	lw	a4,8(a1)
    2498:	d422                	sw	s0,40(sp)
    249a:	d226                	sw	s1,36(sp)
    249c:	ce4e                	sw	s3,28(sp)
    249e:	cc52                	sw	s4,24(sp)
    24a0:	d606                	sw	ra,44(sp)
    24a2:	d04a                	sw	s2,32(sp)
    24a4:	c85a                	sw	s6,16(sp)
    24a6:	c65e                	sw	s7,12(sp)
    24a8:	89aa                	mv	s3,a0
    24aa:	842e                	mv	s0,a1
    24ac:	84b2                	mv	s1,a2
    24ae:	8a36                	mv	s4,a3
    24b0:	00e7d363          	bge	a5,a4,24b6 <_printf_common+0x28>
    24b4:	87ba                	mv	a5,a4
    24b6:	c09c                	sw	a5,0(s1)
    24b8:	04344703          	lbu	a4,67(s0)
    24bc:	c319                	beqz	a4,24c2 <_printf_common+0x34>
    24be:	0785                	addi	a5,a5,1
    24c0:	c09c                	sw	a5,0(s1)
    24c2:	401c                	lw	a5,0(s0)
    24c4:	0207f793          	andi	a5,a5,32
    24c8:	c781                	beqz	a5,24d0 <_printf_common+0x42>
    24ca:	409c                	lw	a5,0(s1)
    24cc:	0789                	addi	a5,a5,2
    24ce:	c09c                	sw	a5,0(s1)
    24d0:	00042903          	lw	s2,0(s0)
    24d4:	00697913          	andi	s2,s2,6
    24d8:	00091a63          	bnez	s2,24ec <_printf_common+0x5e>
    24dc:	01940b13          	addi	s6,s0,25
    24e0:	5bfd                	li	s7,-1
    24e2:	445c                	lw	a5,12(s0)
    24e4:	4098                	lw	a4,0(s1)
    24e6:	8f99                	sub	a5,a5,a4
    24e8:	04f94c63          	blt	s2,a5,2540 <_printf_common+0xb2>
    24ec:	401c                	lw	a5,0(s0)
    24ee:	04344683          	lbu	a3,67(s0)
    24f2:	0207f793          	andi	a5,a5,32
    24f6:	00d036b3          	snez	a3,a3
    24fa:	eba5                	bnez	a5,256a <_printf_common+0xdc>
    24fc:	04340613          	addi	a2,s0,67
    2500:	85d2                	mv	a1,s4
    2502:	854e                	mv	a0,s3
    2504:	9a82                	jalr	s5
    2506:	57fd                	li	a5,-1
    2508:	04f50363          	beq	a0,a5,254e <_printf_common+0xc0>
    250c:	401c                	lw	a5,0(s0)
    250e:	4611                	li	a2,4
    2510:	4098                	lw	a4,0(s1)
    2512:	8b99                	andi	a5,a5,6
    2514:	4454                	lw	a3,12(s0)
    2516:	4481                	li	s1,0
    2518:	00c79763          	bne	a5,a2,2526 <_printf_common+0x98>
    251c:	40e684b3          	sub	s1,a3,a4
    2520:	0004d363          	bgez	s1,2526 <_printf_common+0x98>
    2524:	4481                	li	s1,0
    2526:	441c                	lw	a5,8(s0)
    2528:	4818                	lw	a4,16(s0)
    252a:	00f75463          	bge	a4,a5,2532 <_printf_common+0xa4>
    252e:	8f99                	sub	a5,a5,a4
    2530:	94be                	add	s1,s1,a5
    2532:	4901                	li	s2,0
    2534:	0469                	addi	s0,s0,26
    2536:	5b7d                	li	s6,-1
    2538:	05249863          	bne	s1,s2,2588 <_printf_common+0xfa>
    253c:	4501                	li	a0,0
    253e:	a809                	j	2550 <_printf_common+0xc2>
    2540:	4685                	li	a3,1
    2542:	865a                	mv	a2,s6
    2544:	85d2                	mv	a1,s4
    2546:	854e                	mv	a0,s3
    2548:	9a82                	jalr	s5
    254a:	01751e63          	bne	a0,s7,2566 <_printf_common+0xd8>
    254e:	557d                	li	a0,-1
    2550:	50b2                	lw	ra,44(sp)
    2552:	5422                	lw	s0,40(sp)
    2554:	5492                	lw	s1,36(sp)
    2556:	5902                	lw	s2,32(sp)
    2558:	49f2                	lw	s3,28(sp)
    255a:	4a62                	lw	s4,24(sp)
    255c:	4ad2                	lw	s5,20(sp)
    255e:	4b42                	lw	s6,16(sp)
    2560:	4bb2                	lw	s7,12(sp)
    2562:	6145                	addi	sp,sp,48
    2564:	8082                	ret
    2566:	0905                	addi	s2,s2,1
    2568:	bfad                	j	24e2 <_printf_common+0x54>
    256a:	00d40733          	add	a4,s0,a3
    256e:	03000613          	li	a2,48
    2572:	04c701a3          	sb	a2,67(a4)
    2576:	04544703          	lbu	a4,69(s0)
    257a:	00168793          	addi	a5,a3,1
    257e:	97a2                	add	a5,a5,s0
    2580:	0689                	addi	a3,a3,2
    2582:	04e781a3          	sb	a4,67(a5)
    2586:	bf9d                	j	24fc <_printf_common+0x6e>
    2588:	4685                	li	a3,1
    258a:	8622                	mv	a2,s0
    258c:	85d2                	mv	a1,s4
    258e:	854e                	mv	a0,s3
    2590:	9a82                	jalr	s5
    2592:	fb650ee3          	beq	a0,s6,254e <_printf_common+0xc0>
    2596:	0905                	addi	s2,s2,1
    2598:	b745                	j	2538 <_printf_common+0xaa>

0000259a <_printf_i>:
    259a:	7179                	addi	sp,sp,-48
    259c:	d422                	sw	s0,40(sp)
    259e:	d226                	sw	s1,36(sp)
    25a0:	d04a                	sw	s2,32(sp)
    25a2:	ce4e                	sw	s3,28(sp)
    25a4:	d606                	sw	ra,44(sp)
    25a6:	cc52                	sw	s4,24(sp)
    25a8:	ca56                	sw	s5,20(sp)
    25aa:	c85a                	sw	s6,16(sp)
    25ac:	89b6                	mv	s3,a3
    25ae:	2d94                	lbu	a3,24(a1)
    25b0:	06900793          	li	a5,105
    25b4:	8932                	mv	s2,a2
    25b6:	84aa                	mv	s1,a0
    25b8:	842e                	mv	s0,a1
    25ba:	04358613          	addi	a2,a1,67
    25be:	02f68d63          	beq	a3,a5,25f8 <_printf_i+0x5e>
    25c2:	06d7e263          	bltu	a5,a3,2626 <_printf_i+0x8c>
    25c6:	05800793          	li	a5,88
    25ca:	18f68563          	beq	a3,a5,2754 <_printf_i+0x1ba>
    25ce:	00d7ed63          	bltu	a5,a3,25e8 <_printf_i+0x4e>
    25d2:	20068d63          	beqz	a3,27ec <_printf_i+0x252>
    25d6:	04300793          	li	a5,67
    25da:	0af68e63          	beq	a3,a5,2696 <_printf_i+0xfc>
    25de:	04240a93          	addi	s5,s0,66
    25e2:	04d40123          	sb	a3,66(s0)
    25e6:	a0c9                	j	26a8 <_printf_i+0x10e>
    25e8:	06300793          	li	a5,99
    25ec:	0af68563          	beq	a3,a5,2696 <_printf_i+0xfc>
    25f0:	06400793          	li	a5,100
    25f4:	fef695e3          	bne	a3,a5,25de <_printf_i+0x44>
    25f8:	401c                	lw	a5,0(s0)
    25fa:	4308                	lw	a0,0(a4)
    25fc:	0807f693          	andi	a3,a5,128
    2600:	00450593          	addi	a1,a0,4
    2604:	c6c5                	beqz	a3,26ac <_printf_i+0x112>
    2606:	411c                	lw	a5,0(a0)
    2608:	c30c                	sw	a1,0(a4)
    260a:	0007d863          	bgez	a5,261a <_printf_i+0x80>
    260e:	02d00713          	li	a4,45
    2612:	40f007b3          	neg	a5,a5
    2616:	04e401a3          	sb	a4,67(s0)
    261a:	00000697          	auipc	a3,0x0
    261e:	6a268693          	addi	a3,a3,1698 # 2cbc <__sf_fake_stdout+0x34>
    2622:	4729                	li	a4,10
    2624:	a865                	j	26dc <_printf_i+0x142>
    2626:	07000793          	li	a5,112
    262a:	16f68163          	beq	a3,a5,278c <_printf_i+0x1f2>
    262e:	02d7e563          	bltu	a5,a3,2658 <_printf_i+0xbe>
    2632:	06e00793          	li	a5,110
    2636:	18f68863          	beq	a3,a5,27c6 <_printf_i+0x22c>
    263a:	06f00793          	li	a5,111
    263e:	faf690e3          	bne	a3,a5,25de <_printf_i+0x44>
    2642:	400c                	lw	a1,0(s0)
    2644:	431c                	lw	a5,0(a4)
    2646:	0805f813          	andi	a6,a1,128
    264a:	00478513          	addi	a0,a5,4
    264e:	06080763          	beqz	a6,26bc <_printf_i+0x122>
    2652:	c308                	sw	a0,0(a4)
    2654:	439c                	lw	a5,0(a5)
    2656:	a885                	j	26c6 <_printf_i+0x12c>
    2658:	07500793          	li	a5,117
    265c:	fef683e3          	beq	a3,a5,2642 <_printf_i+0xa8>
    2660:	07800793          	li	a5,120
    2664:	12f68863          	beq	a3,a5,2794 <_printf_i+0x1fa>
    2668:	07300793          	li	a5,115
    266c:	f6f699e3          	bne	a3,a5,25de <_printf_i+0x44>
    2670:	431c                	lw	a5,0(a4)
    2672:	41d0                	lw	a2,4(a1)
    2674:	4581                	li	a1,0
    2676:	00478693          	addi	a3,a5,4
    267a:	c314                	sw	a3,0(a4)
    267c:	0007aa83          	lw	s5,0(a5)
    2680:	8556                	mv	a0,s5
    2682:	2685                	jal	29e2 <memchr>
    2684:	c501                	beqz	a0,268c <_printf_i+0xf2>
    2686:	41550533          	sub	a0,a0,s5
    268a:	c048                	sw	a0,4(s0)
    268c:	405c                	lw	a5,4(s0)
    268e:	c81c                	sw	a5,16(s0)
    2690:	040401a3          	sb	zero,67(s0)
    2694:	a861                	j	272c <_printf_i+0x192>
    2696:	431c                	lw	a5,0(a4)
    2698:	04240a93          	addi	s5,s0,66
    269c:	00478693          	addi	a3,a5,4
    26a0:	439c                	lw	a5,0(a5)
    26a2:	c314                	sw	a3,0(a4)
    26a4:	04f40123          	sb	a5,66(s0)
    26a8:	4785                	li	a5,1
    26aa:	b7d5                	j	268e <_printf_i+0xf4>
    26ac:	0407f693          	andi	a3,a5,64
    26b0:	411c                	lw	a5,0(a0)
    26b2:	c30c                	sw	a1,0(a4)
    26b4:	dab9                	beqz	a3,260a <_printf_i+0x70>
    26b6:	07c2                	slli	a5,a5,0x10
    26b8:	87c1                	srai	a5,a5,0x10
    26ba:	bf81                	j	260a <_printf_i+0x70>
    26bc:	0405f593          	andi	a1,a1,64
    26c0:	c308                	sw	a0,0(a4)
    26c2:	d9c9                	beqz	a1,2654 <_printf_i+0xba>
    26c4:	239e                	lhu	a5,0(a5)
    26c6:	06f00713          	li	a4,111
    26ca:	0ee68663          	beq	a3,a4,27b6 <_printf_i+0x21c>
    26ce:	00000697          	auipc	a3,0x0
    26d2:	5ee68693          	addi	a3,a3,1518 # 2cbc <__sf_fake_stdout+0x34>
    26d6:	4729                	li	a4,10
    26d8:	040401a3          	sb	zero,67(s0)
    26dc:	404c                	lw	a1,4(s0)
    26de:	c40c                	sw	a1,8(s0)
    26e0:	0005c563          	bltz	a1,26ea <_printf_i+0x150>
    26e4:	4008                	lw	a0,0(s0)
    26e6:	996d                	andi	a0,a0,-5
    26e8:	c008                	sw	a0,0(s0)
    26ea:	e399                	bnez	a5,26f0 <_printf_i+0x156>
    26ec:	8ab2                	mv	s5,a2
    26ee:	cd89                	beqz	a1,2708 <_printf_i+0x16e>
    26f0:	8ab2                	mv	s5,a2
    26f2:	02e7f5b3          	remu	a1,a5,a4
    26f6:	1afd                	addi	s5,s5,-1
    26f8:	95b6                	add	a1,a1,a3
    26fa:	218c                	lbu	a1,0(a1)
    26fc:	00ba8023          	sb	a1,0(s5)
    2700:	02e7d5b3          	divu	a1,a5,a4
    2704:	0ae7ff63          	bgeu	a5,a4,27c2 <_printf_i+0x228>
    2708:	47a1                	li	a5,8
    270a:	00f71e63          	bne	a4,a5,2726 <_printf_i+0x18c>
    270e:	401c                	lw	a5,0(s0)
    2710:	8b85                	andi	a5,a5,1
    2712:	cb91                	beqz	a5,2726 <_printf_i+0x18c>
    2714:	4058                	lw	a4,4(s0)
    2716:	481c                	lw	a5,16(s0)
    2718:	00e7c763          	blt	a5,a4,2726 <_printf_i+0x18c>
    271c:	03000793          	li	a5,48
    2720:	fefa8fa3          	sb	a5,-1(s5)
    2724:	1afd                	addi	s5,s5,-1
    2726:	41560633          	sub	a2,a2,s5
    272a:	c810                	sw	a2,16(s0)
    272c:	874e                	mv	a4,s3
    272e:	86ca                	mv	a3,s2
    2730:	0070                	addi	a2,sp,12
    2732:	85a2                	mv	a1,s0
    2734:	8526                	mv	a0,s1
    2736:	3ba1                	jal	248e <_printf_common>
    2738:	5a7d                	li	s4,-1
    273a:	0b451d63          	bne	a0,s4,27f4 <_printf_i+0x25a>
    273e:	557d                	li	a0,-1
    2740:	50b2                	lw	ra,44(sp)
    2742:	5422                	lw	s0,40(sp)
    2744:	5492                	lw	s1,36(sp)
    2746:	5902                	lw	s2,32(sp)
    2748:	49f2                	lw	s3,28(sp)
    274a:	4a62                	lw	s4,24(sp)
    274c:	4ad2                	lw	s5,20(sp)
    274e:	4b42                	lw	s6,16(sp)
    2750:	6145                	addi	sp,sp,48
    2752:	8082                	ret
    2754:	04d582a3          	sb	a3,69(a1)
    2758:	00000697          	auipc	a3,0x0
    275c:	56468693          	addi	a3,a3,1380 # 2cbc <__sf_fake_stdout+0x34>
    2760:	400c                	lw	a1,0(s0)
    2762:	4308                	lw	a0,0(a4)
    2764:	0805f813          	andi	a6,a1,128
    2768:	411c                	lw	a5,0(a0)
    276a:	0511                	addi	a0,a0,4
    276c:	02080d63          	beqz	a6,27a6 <_printf_i+0x20c>
    2770:	c308                	sw	a0,0(a4)
    2772:	0015f713          	andi	a4,a1,1
    2776:	c701                	beqz	a4,277e <_printf_i+0x1e4>
    2778:	0205e593          	ori	a1,a1,32
    277c:	c00c                	sw	a1,0(s0)
    277e:	4741                	li	a4,16
    2780:	ffa1                	bnez	a5,26d8 <_printf_i+0x13e>
    2782:	400c                	lw	a1,0(s0)
    2784:	fdf5f593          	andi	a1,a1,-33
    2788:	c00c                	sw	a1,0(s0)
    278a:	b7b9                	j	26d8 <_printf_i+0x13e>
    278c:	419c                	lw	a5,0(a1)
    278e:	0207e793          	ori	a5,a5,32
    2792:	c19c                	sw	a5,0(a1)
    2794:	07800793          	li	a5,120
    2798:	04f402a3          	sb	a5,69(s0)
    279c:	00000697          	auipc	a3,0x0
    27a0:	53468693          	addi	a3,a3,1332 # 2cd0 <__sf_fake_stdout+0x48>
    27a4:	bf75                	j	2760 <_printf_i+0x1c6>
    27a6:	0405f813          	andi	a6,a1,64
    27aa:	c308                	sw	a0,0(a4)
    27ac:	fc0803e3          	beqz	a6,2772 <_printf_i+0x1d8>
    27b0:	07c2                	slli	a5,a5,0x10
    27b2:	83c1                	srli	a5,a5,0x10
    27b4:	bf7d                	j	2772 <_printf_i+0x1d8>
    27b6:	00000697          	auipc	a3,0x0
    27ba:	50668693          	addi	a3,a3,1286 # 2cbc <__sf_fake_stdout+0x34>
    27be:	4721                	li	a4,8
    27c0:	bf21                	j	26d8 <_printf_i+0x13e>
    27c2:	87ae                	mv	a5,a1
    27c4:	b73d                	j	26f2 <_printf_i+0x158>
    27c6:	4194                	lw	a3,0(a1)
    27c8:	431c                	lw	a5,0(a4)
    27ca:	49cc                	lw	a1,20(a1)
    27cc:	0806f813          	andi	a6,a3,128
    27d0:	00478513          	addi	a0,a5,4
    27d4:	00080663          	beqz	a6,27e0 <_printf_i+0x246>
    27d8:	c308                	sw	a0,0(a4)
    27da:	439c                	lw	a5,0(a5)
    27dc:	c38c                	sw	a1,0(a5)
    27de:	a039                	j	27ec <_printf_i+0x252>
    27e0:	c308                	sw	a0,0(a4)
    27e2:	0406f693          	andi	a3,a3,64
    27e6:	439c                	lw	a5,0(a5)
    27e8:	daf5                	beqz	a3,27dc <_printf_i+0x242>
    27ea:	a38e                	sh	a1,0(a5)
    27ec:	00042823          	sw	zero,16(s0)
    27f0:	8ab2                	mv	s5,a2
    27f2:	bf2d                	j	272c <_printf_i+0x192>
    27f4:	4814                	lw	a3,16(s0)
    27f6:	8656                	mv	a2,s5
    27f8:	85ca                	mv	a1,s2
    27fa:	8526                	mv	a0,s1
    27fc:	9982                	jalr	s3
    27fe:	f54500e3          	beq	a0,s4,273e <_printf_i+0x1a4>
    2802:	401c                	lw	a5,0(s0)
    2804:	8b89                	andi	a5,a5,2
    2806:	e78d                	bnez	a5,2830 <_printf_i+0x296>
    2808:	47b2                	lw	a5,12(sp)
    280a:	4448                	lw	a0,12(s0)
    280c:	f2f55ae3          	bge	a0,a5,2740 <_printf_i+0x1a6>
    2810:	853e                	mv	a0,a5
    2812:	b73d                	j	2740 <_printf_i+0x1a6>
    2814:	4685                	li	a3,1
    2816:	8656                	mv	a2,s5
    2818:	85ca                	mv	a1,s2
    281a:	8526                	mv	a0,s1
    281c:	9982                	jalr	s3
    281e:	f36500e3          	beq	a0,s6,273e <_printf_i+0x1a4>
    2822:	0a05                	addi	s4,s4,1
    2824:	445c                	lw	a5,12(s0)
    2826:	4732                	lw	a4,12(sp)
    2828:	8f99                	sub	a5,a5,a4
    282a:	fefa45e3          	blt	s4,a5,2814 <_printf_i+0x27a>
    282e:	bfe9                	j	2808 <_printf_i+0x26e>
    2830:	4a01                	li	s4,0
    2832:	01940a93          	addi	s5,s0,25
    2836:	5b7d                	li	s6,-1
    2838:	b7f5                	j	2824 <_printf_i+0x28a>

0000283a <_sbrk_r>:
    283a:	1141                	addi	sp,sp,-16
    283c:	c422                	sw	s0,8(sp)
    283e:	842a                	mv	s0,a0
    2840:	852e                	mv	a0,a1
    2842:	b601a023          	sw	zero,-1184(gp) # 200003f8 <errno>
    2846:	c606                	sw	ra,12(sp)
    2848:	f91fe0ef          	jal	ra,17d8 <_sbrk>
    284c:	57fd                	li	a5,-1
    284e:	00f51763          	bne	a0,a5,285c <_sbrk_r+0x22>
    2852:	b6018793          	addi	a5,gp,-1184 # 200003f8 <errno>
    2856:	439c                	lw	a5,0(a5)
    2858:	c391                	beqz	a5,285c <_sbrk_r+0x22>
    285a:	c01c                	sw	a5,0(s0)
    285c:	40b2                	lw	ra,12(sp)
    285e:	4422                	lw	s0,8(sp)
    2860:	0141                	addi	sp,sp,16
    2862:	8082                	ret

00002864 <__sread>:
    2864:	1141                	addi	sp,sp,-16
    2866:	c422                	sw	s0,8(sp)
    2868:	842e                	mv	s0,a1
    286a:	00e59583          	lh	a1,14(a1)
    286e:	c606                	sw	ra,12(sp)
    2870:	2279                	jal	29fe <_read_r>
    2872:	00054963          	bltz	a0,2884 <__sread+0x20>
    2876:	487c                	lw	a5,84(s0)
    2878:	97aa                	add	a5,a5,a0
    287a:	c87c                	sw	a5,84(s0)
    287c:	40b2                	lw	ra,12(sp)
    287e:	4422                	lw	s0,8(sp)
    2880:	0141                	addi	sp,sp,16
    2882:	8082                	ret
    2884:	245e                	lhu	a5,12(s0)
    2886:	777d                	lui	a4,0xfffff
    2888:	177d                	addi	a4,a4,-1
    288a:	8ff9                	and	a5,a5,a4
    288c:	a45e                	sh	a5,12(s0)
    288e:	b7fd                	j	287c <__sread+0x18>

00002890 <__swrite>:
    2890:	25de                	lhu	a5,12(a1)
    2892:	1101                	addi	sp,sp,-32
    2894:	cc22                	sw	s0,24(sp)
    2896:	ca26                	sw	s1,20(sp)
    2898:	c84a                	sw	s2,16(sp)
    289a:	c64e                	sw	s3,12(sp)
    289c:	ce06                	sw	ra,28(sp)
    289e:	1007f793          	andi	a5,a5,256
    28a2:	84aa                	mv	s1,a0
    28a4:	842e                	mv	s0,a1
    28a6:	8932                	mv	s2,a2
    28a8:	89b6                	mv	s3,a3
    28aa:	c791                	beqz	a5,28b6 <__swrite+0x26>
    28ac:	00e59583          	lh	a1,14(a1)
    28b0:	4689                	li	a3,2
    28b2:	4601                	li	a2,0
    28b4:	2209                	jal	29b6 <_lseek_r>
    28b6:	245e                	lhu	a5,12(s0)
    28b8:	777d                	lui	a4,0xfffff
    28ba:	177d                	addi	a4,a4,-1
    28bc:	8ff9                	and	a5,a5,a4
    28be:	a45e                	sh	a5,12(s0)
    28c0:	00e41583          	lh	a1,14(s0)
    28c4:	4462                	lw	s0,24(sp)
    28c6:	40f2                	lw	ra,28(sp)
    28c8:	86ce                	mv	a3,s3
    28ca:	864a                	mv	a2,s2
    28cc:	49b2                	lw	s3,12(sp)
    28ce:	4942                	lw	s2,16(sp)
    28d0:	8526                	mv	a0,s1
    28d2:	44d2                	lw	s1,20(sp)
    28d4:	6105                	addi	sp,sp,32
    28d6:	a825                	j	290e <_write_r>

000028d8 <__sseek>:
    28d8:	1141                	addi	sp,sp,-16
    28da:	c422                	sw	s0,8(sp)
    28dc:	842e                	mv	s0,a1
    28de:	00e59583          	lh	a1,14(a1)
    28e2:	c606                	sw	ra,12(sp)
    28e4:	28c9                	jal	29b6 <_lseek_r>
    28e6:	57fd                	li	a5,-1
    28e8:	245a                	lhu	a4,12(s0)
    28ea:	00f51a63          	bne	a0,a5,28fe <__sseek+0x26>
    28ee:	77fd                	lui	a5,0xfffff
    28f0:	17fd                	addi	a5,a5,-1
    28f2:	8ff9                	and	a5,a5,a4
    28f4:	a45e                	sh	a5,12(s0)
    28f6:	40b2                	lw	ra,12(sp)
    28f8:	4422                	lw	s0,8(sp)
    28fa:	0141                	addi	sp,sp,16
    28fc:	8082                	ret
    28fe:	6785                	lui	a5,0x1
    2900:	8fd9                	or	a5,a5,a4
    2902:	a45e                	sh	a5,12(s0)
    2904:	c868                	sw	a0,84(s0)
    2906:	bfc5                	j	28f6 <__sseek+0x1e>

00002908 <__sclose>:
    2908:	00e59583          	lh	a1,14(a1)
    290c:	a805                	j	293c <_close_r>

0000290e <_write_r>:
    290e:	1141                	addi	sp,sp,-16
    2910:	c422                	sw	s0,8(sp)
    2912:	842a                	mv	s0,a0
    2914:	852e                	mv	a0,a1
    2916:	85b2                	mv	a1,a2
    2918:	8636                	mv	a2,a3
    291a:	b601a023          	sw	zero,-1184(gp) # 200003f8 <errno>
    291e:	c606                	sw	ra,12(sp)
    2920:	e7ffe0ef          	jal	ra,179e <_write>
    2924:	57fd                	li	a5,-1
    2926:	00f51763          	bne	a0,a5,2934 <_write_r+0x26>
    292a:	b6018793          	addi	a5,gp,-1184 # 200003f8 <errno>
    292e:	439c                	lw	a5,0(a5)
    2930:	c391                	beqz	a5,2934 <_write_r+0x26>
    2932:	c01c                	sw	a5,0(s0)
    2934:	40b2                	lw	ra,12(sp)
    2936:	4422                	lw	s0,8(sp)
    2938:	0141                	addi	sp,sp,16
    293a:	8082                	ret

0000293c <_close_r>:
    293c:	1141                	addi	sp,sp,-16
    293e:	c422                	sw	s0,8(sp)
    2940:	842a                	mv	s0,a0
    2942:	852e                	mv	a0,a1
    2944:	b601a023          	sw	zero,-1184(gp) # 200003f8 <errno>
    2948:	c606                	sw	ra,12(sp)
    294a:	20c5                	jal	2a2a <_close>
    294c:	57fd                	li	a5,-1
    294e:	00f51763          	bne	a0,a5,295c <_close_r+0x20>
    2952:	b6018793          	addi	a5,gp,-1184 # 200003f8 <errno>
    2956:	439c                	lw	a5,0(a5)
    2958:	c391                	beqz	a5,295c <_close_r+0x20>
    295a:	c01c                	sw	a5,0(s0)
    295c:	40b2                	lw	ra,12(sp)
    295e:	4422                	lw	s0,8(sp)
    2960:	0141                	addi	sp,sp,16
    2962:	8082                	ret

00002964 <_fstat_r>:
    2964:	1141                	addi	sp,sp,-16
    2966:	c422                	sw	s0,8(sp)
    2968:	842a                	mv	s0,a0
    296a:	852e                	mv	a0,a1
    296c:	85b2                	mv	a1,a2
    296e:	b601a023          	sw	zero,-1184(gp) # 200003f8 <errno>
    2972:	c606                	sw	ra,12(sp)
    2974:	20c9                	jal	2a36 <_fstat>
    2976:	57fd                	li	a5,-1
    2978:	00f51763          	bne	a0,a5,2986 <_fstat_r+0x22>
    297c:	b6018793          	addi	a5,gp,-1184 # 200003f8 <errno>
    2980:	439c                	lw	a5,0(a5)
    2982:	c391                	beqz	a5,2986 <_fstat_r+0x22>
    2984:	c01c                	sw	a5,0(s0)
    2986:	40b2                	lw	ra,12(sp)
    2988:	4422                	lw	s0,8(sp)
    298a:	0141                	addi	sp,sp,16
    298c:	8082                	ret

0000298e <_isatty_r>:
    298e:	1141                	addi	sp,sp,-16
    2990:	c422                	sw	s0,8(sp)
    2992:	842a                	mv	s0,a0
    2994:	852e                	mv	a0,a1
    2996:	b601a023          	sw	zero,-1184(gp) # 200003f8 <errno>
    299a:	c606                	sw	ra,12(sp)
    299c:	205d                	jal	2a42 <_isatty>
    299e:	57fd                	li	a5,-1
    29a0:	00f51763          	bne	a0,a5,29ae <_isatty_r+0x20>
    29a4:	b6018793          	addi	a5,gp,-1184 # 200003f8 <errno>
    29a8:	439c                	lw	a5,0(a5)
    29aa:	c391                	beqz	a5,29ae <_isatty_r+0x20>
    29ac:	c01c                	sw	a5,0(s0)
    29ae:	40b2                	lw	ra,12(sp)
    29b0:	4422                	lw	s0,8(sp)
    29b2:	0141                	addi	sp,sp,16
    29b4:	8082                	ret

000029b6 <_lseek_r>:
    29b6:	1141                	addi	sp,sp,-16
    29b8:	c422                	sw	s0,8(sp)
    29ba:	842a                	mv	s0,a0
    29bc:	852e                	mv	a0,a1
    29be:	85b2                	mv	a1,a2
    29c0:	8636                	mv	a2,a3
    29c2:	b601a023          	sw	zero,-1184(gp) # 200003f8 <errno>
    29c6:	c606                	sw	ra,12(sp)
    29c8:	2059                	jal	2a4e <_lseek>
    29ca:	57fd                	li	a5,-1
    29cc:	00f51763          	bne	a0,a5,29da <_lseek_r+0x24>
    29d0:	b6018793          	addi	a5,gp,-1184 # 200003f8 <errno>
    29d4:	439c                	lw	a5,0(a5)
    29d6:	c391                	beqz	a5,29da <_lseek_r+0x24>
    29d8:	c01c                	sw	a5,0(s0)
    29da:	40b2                	lw	ra,12(sp)
    29dc:	4422                	lw	s0,8(sp)
    29de:	0141                	addi	sp,sp,16
    29e0:	8082                	ret

000029e2 <memchr>:
    29e2:	0ff5f593          	andi	a1,a1,255
    29e6:	962a                	add	a2,a2,a0
    29e8:	00c51463          	bne	a0,a2,29f0 <memchr+0xe>
    29ec:	4501                	li	a0,0
    29ee:	8082                	ret
    29f0:	211c                	lbu	a5,0(a0)
    29f2:	feb78ee3          	beq	a5,a1,29ee <memchr+0xc>
    29f6:	0505                	addi	a0,a0,1
    29f8:	bfc5                	j	29e8 <memchr+0x6>

000029fa <__malloc_lock>:
    29fa:	8082                	ret

000029fc <__malloc_unlock>:
    29fc:	8082                	ret

000029fe <_read_r>:
    29fe:	1141                	addi	sp,sp,-16
    2a00:	c422                	sw	s0,8(sp)
    2a02:	842a                	mv	s0,a0
    2a04:	852e                	mv	a0,a1
    2a06:	85b2                	mv	a1,a2
    2a08:	8636                	mv	a2,a3
    2a0a:	b601a023          	sw	zero,-1184(gp) # 200003f8 <errno>
    2a0e:	c606                	sw	ra,12(sp)
    2a10:	20a9                	jal	2a5a <_read>
    2a12:	57fd                	li	a5,-1
    2a14:	00f51763          	bne	a0,a5,2a22 <_read_r+0x24>
    2a18:	b6018793          	addi	a5,gp,-1184 # 200003f8 <errno>
    2a1c:	439c                	lw	a5,0(a5)
    2a1e:	c391                	beqz	a5,2a22 <_read_r+0x24>
    2a20:	c01c                	sw	a5,0(s0)
    2a22:	40b2                	lw	ra,12(sp)
    2a24:	4422                	lw	s0,8(sp)
    2a26:	0141                	addi	sp,sp,16
    2a28:	8082                	ret

00002a2a <_close>:
    2a2a:	05800793          	li	a5,88
    2a2e:	b6f1a023          	sw	a5,-1184(gp) # 200003f8 <errno>
    2a32:	557d                	li	a0,-1
    2a34:	8082                	ret

00002a36 <_fstat>:
    2a36:	05800793          	li	a5,88
    2a3a:	b6f1a023          	sw	a5,-1184(gp) # 200003f8 <errno>
    2a3e:	557d                	li	a0,-1
    2a40:	8082                	ret

00002a42 <_isatty>:
    2a42:	05800793          	li	a5,88
    2a46:	b6f1a023          	sw	a5,-1184(gp) # 200003f8 <errno>
    2a4a:	4501                	li	a0,0
    2a4c:	8082                	ret

00002a4e <_lseek>:
    2a4e:	05800793          	li	a5,88
    2a52:	b6f1a023          	sw	a5,-1184(gp) # 200003f8 <errno>
    2a56:	557d                	li	a0,-1
    2a58:	8082                	ret

00002a5a <_read>:
    2a5a:	05800793          	li	a5,88
    2a5e:	b6f1a023          	sw	a5,-1184(gp) # 200003f8 <errno>
    2a62:	557d                	li	a0,-1
    2a64:	8082                	ret
    2a66:	0000                	unimp
    2a68:	7245                	lui	tp,0xffff1
    2a6a:	6f72                	flw	ft10,28(sp)
    2a6c:	2072                	lhu	a2,6(s0)
    2a6e:	6441                	lui	s0,0x10
    2a70:	7264                	flw	fs1,100(a2)
    2a72:	7365                	lui	t1,0xffff9
    2a74:	78252073          	csrs	0x782,a0
    2a78:	000a                	c.slli	zero,0x2
	...

00002a7c <UDISK_Mode_Senese_5A>:
    2a7c:	0e00 0000 0000 0800 0000 3f00 0000 0002     ...........?....

00002a8c <UDISK_Mode_Sense_1A>:
    2a8c:	000b 0800 0000 3f00 0000 0002               .......?....

00002a98 <UDISK_Rd_Format_Capacity>:
    2a98:	0000 0800 0000 4000 0002 0002 09fa 0000     .......@........
    2aa8:	09ee 0000 09f2 0000 09f6 0000 09fa 0000     ................
    2ab8:	09fe 0000 0a02 0000 0a06 0000 0a2c 0000     ............,...
    2ac8:	0a32 0000 0a38 0000 0a3c 0000 0a40 0000     2...8...<...@...
    2ad8:	0a48 0000 0a4c 0000 0a6a 0000 0a74 0000     H...L...j...t...
    2ae8:	0a7e 0000 0a88 0000 0aae 0000 0a92 0000     ~...............
    2af8:	0a9c 0000 0aa6 0000 0ad0 0000 0ad4 0000     ................
    2b08:	0ad8 0000 0adc 0000 0ae0 0000 0ae4 0000     ................
    2b18:	0aea 0000 0af0 0000 0b16 0000 0b1a 0000     ................
    2b28:	0b1e 0000 0b22 0000 0b26 0000 0b2a 0000     ...."...&...*...
    2b38:	0b30 0000 0b36 0000 0b58 0000 0b60 0000     0...6...X...`...
    2b48:	0b64 0000 0b68 0000 0b6c 0000 0b70 0000     d...h...l...p...
    2b58:	0b76 0000 0b7c 0000 10a2 0000 0fbc 0000     v...|...........
    2b68:	0f06 0000 1028 0000 0f06 0000 0f8c 0000     ....(...........
    2b78:	0e9e 0000 0f06 0000 0f98 0000 0faa 0000     ................
    2b88:	109c 0000 0e2c 0000 7953 7473 6d65 6c43     ....,...SystemCl
    2b98:	3a6b 6425 0a0d 0000 5355 4442 5520 6944     k:%d....USBD UDi
    2ba8:	6b73 4420 6d65 0d6f 530a 6f74 6172 6567     sk Demo..Storage
    2bb8:	4d20 6465 7569 3a6d 4920 544e 5245 414e      Medium: INTERNA
    2bc8:	204c 4c46 5341 2048 000d 0000               L FLASH ....

00002bd4 <MyCfgDescr>:
    2bd4:	0209 0020 0101 c000 0932 0004 0200 0608     .. .....2.......
    2be4:	0050 0507 0282 0040 0700 0305 4002 0000     P.....@......@..

00002bf4 <MyDevDescr>:
    2bf4:	0112 0200 0000 4000 1a86 fe10 0001 0201     .......@........
    2c04:	0100 0000                                   ....

00002c08 <MyManuInfo>:
    2c08:	030e 0077 0063 0068 002e 0063 006e 0000     ..w.c.h...c.n...

00002c18 <MyProdInfo>:
    2c18:	0316 0043 0048 0032 0030 0078 0055 0044     ..C.H.2.0.x.U.D.
    2c28:	0069 0073 006b 0000                         i.s.k...

00002c30 <MySerNumInfo>:
    2c30:	0316 0030 0031 0032 0033 0034 0035 0036     ..0.1.2.3.4.5.6.
    2c40:	0037 0038 0039 0000                         7.8.9...

00002c48 <__sf_fake_stderr>:
	...

00002c68 <__sf_fake_stdin>:
	...

00002c88 <__sf_fake_stdout>:
	...
    2ca8:	2d23 2b30 0020 0000 6c68 004c 6665 4567     #-0+ ...hlL.efgE
    2cb8:	4746 0000 3130 3332 3534 3736 3938 4241     FG..0123456789AB
    2cc8:	4443 4645 0000 0000 3130 3332 3534 3736     CDEF....01234567
    2cd8:	3938 6261 6463 6665 0000 0000               89abcdef....
